
tryapp.elf:     file format elf32-avr

Sections:
Idx Name          Size      VMA       LMA       File off  Algn
  0 .text         0000403a  00000000  00000000  00000074  2**1
                  CONTENTS, ALLOC, LOAD, READONLY, CODE
  1 .data         00000350  00800060  0000403a  000040ae  2**0
                  CONTENTS, ALLOC, LOAD, DATA
  2 .stab         00003894  00000000  00000000  00004400  2**2
                  CONTENTS, READONLY, DEBUGGING
  3 .stabstr      000019d7  00000000  00000000  00007c94  2**0
                  CONTENTS, READONLY, DEBUGGING
  4 .debug_aranges 000001a0  00000000  00000000  0000966b  2**0
                  CONTENTS, READONLY, DEBUGGING
  5 .debug_pubnames 000001f2  00000000  00000000  0000980b  2**0
                  CONTENTS, READONLY, DEBUGGING
  6 .debug_info   0000240b  00000000  00000000  000099fd  2**0
                  CONTENTS, READONLY, DEBUGGING
  7 .debug_abbrev 00001386  00000000  00000000  0000be08  2**0
                  CONTENTS, READONLY, DEBUGGING
  8 .debug_line   000011d6  00000000  00000000  0000d18e  2**0
                  CONTENTS, READONLY, DEBUGGING
  9 .debug_frame  000001c0  00000000  00000000  0000e364  2**2
                  CONTENTS, READONLY, DEBUGGING
 10 .debug_str    000002f6  00000000  00000000  0000e524  2**0
                  CONTENTS, READONLY, DEBUGGING
 11 .debug_loc    0000096e  00000000  00000000  0000e81a  2**0
                  CONTENTS, READONLY, DEBUGGING
 12 .debug_ranges 00000050  00000000  00000000  0000f188  2**0
                  CONTENTS, READONLY, DEBUGGING

Disassembly of section .text:

00000000 <__vectors>:
       0:	0c 94 2a 00 	jmp	0x54	; 0x54 <__ctors_end>
       4:	0c 94 3f 00 	jmp	0x7e	; 0x7e <__bad_interrupt>
       8:	0c 94 3f 00 	jmp	0x7e	; 0x7e <__bad_interrupt>
       c:	0c 94 3f 00 	jmp	0x7e	; 0x7e <__bad_interrupt>
      10:	0c 94 3f 00 	jmp	0x7e	; 0x7e <__bad_interrupt>
      14:	0c 94 3f 00 	jmp	0x7e	; 0x7e <__bad_interrupt>
      18:	0c 94 3f 00 	jmp	0x7e	; 0x7e <__bad_interrupt>
      1c:	0c 94 3f 00 	jmp	0x7e	; 0x7e <__bad_interrupt>
      20:	0c 94 3f 00 	jmp	0x7e	; 0x7e <__bad_interrupt>
      24:	0c 94 3f 00 	jmp	0x7e	; 0x7e <__bad_interrupt>
      28:	0c 94 3f 00 	jmp	0x7e	; 0x7e <__bad_interrupt>
      2c:	0c 94 3f 00 	jmp	0x7e	; 0x7e <__bad_interrupt>
      30:	0c 94 3f 00 	jmp	0x7e	; 0x7e <__bad_interrupt>
      34:	0c 94 3f 00 	jmp	0x7e	; 0x7e <__bad_interrupt>
      38:	0c 94 3f 00 	jmp	0x7e	; 0x7e <__bad_interrupt>
      3c:	0c 94 3f 00 	jmp	0x7e	; 0x7e <__bad_interrupt>
      40:	0c 94 3f 00 	jmp	0x7e	; 0x7e <__bad_interrupt>
      44:	0c 94 3f 00 	jmp	0x7e	; 0x7e <__bad_interrupt>
      48:	0c 94 3f 00 	jmp	0x7e	; 0x7e <__bad_interrupt>
      4c:	0c 94 3f 00 	jmp	0x7e	; 0x7e <__bad_interrupt>
      50:	0c 94 3f 00 	jmp	0x7e	; 0x7e <__bad_interrupt>

00000054 <__ctors_end>:
      54:	11 24       	eor	r1, r1
      56:	1f be       	out	0x3f, r1	; 63
      58:	cf e5       	ldi	r28, 0x5F	; 95
      5a:	d8 e0       	ldi	r29, 0x08	; 8
      5c:	de bf       	out	0x3e, r29	; 62
      5e:	cd bf       	out	0x3d, r28	; 61

00000060 <__do_copy_data>:
      60:	13 e0       	ldi	r17, 0x03	; 3
      62:	a0 e6       	ldi	r26, 0x60	; 96
      64:	b0 e0       	ldi	r27, 0x00	; 0
      66:	ea e3       	ldi	r30, 0x3A	; 58
      68:	f0 e4       	ldi	r31, 0x40	; 64
      6a:	02 c0       	rjmp	.+4      	; 0x70 <.do_copy_data_start>

0000006c <.do_copy_data_loop>:
      6c:	05 90       	lpm	r0, Z+
      6e:	0d 92       	st	X+, r0

00000070 <.do_copy_data_start>:
      70:	a0 3b       	cpi	r26, 0xB0	; 176
      72:	b1 07       	cpc	r27, r17
      74:	d9 f7       	brne	.-10     	; 0x6c <.do_copy_data_loop>
      76:	0e 94 c1 17 	call	0x2f82	; 0x2f82 <main>
      7a:	0c 94 1b 20 	jmp	0x4036	; 0x4036 <_exit>

0000007e <__bad_interrupt>:
      7e:	0c 94 00 00 	jmp	0	; 0x0 <__vectors>

00000082 <__fixunssfsi>:
      82:	ef 92       	push	r14
      84:	ff 92       	push	r15
      86:	0f 93       	push	r16
      88:	1f 93       	push	r17
      8a:	7b 01       	movw	r14, r22
      8c:	8c 01       	movw	r16, r24
      8e:	20 e0       	ldi	r18, 0x00	; 0
      90:	30 e0       	ldi	r19, 0x00	; 0
      92:	40 e0       	ldi	r20, 0x00	; 0
      94:	5f e4       	ldi	r21, 0x4F	; 79
      96:	0e 94 ed 03 	call	0x7da	; 0x7da <__gesf2>
      9a:	88 23       	and	r24, r24
      9c:	8c f0       	brlt	.+34     	; 0xc0 <__fixunssfsi+0x3e>
      9e:	c8 01       	movw	r24, r16
      a0:	b7 01       	movw	r22, r14
      a2:	20 e0       	ldi	r18, 0x00	; 0
      a4:	30 e0       	ldi	r19, 0x00	; 0
      a6:	40 e0       	ldi	r20, 0x00	; 0
      a8:	5f e4       	ldi	r21, 0x4F	; 79
      aa:	0e 94 b9 01 	call	0x372	; 0x372 <__subsf3>
      ae:	0e 94 4d 04 	call	0x89a	; 0x89a <__fixsfsi>
      b2:	9b 01       	movw	r18, r22
      b4:	ac 01       	movw	r20, r24
      b6:	20 50       	subi	r18, 0x00	; 0
      b8:	30 40       	sbci	r19, 0x00	; 0
      ba:	40 40       	sbci	r20, 0x00	; 0
      bc:	50 48       	sbci	r21, 0x80	; 128
      be:	06 c0       	rjmp	.+12     	; 0xcc <__fixunssfsi+0x4a>
      c0:	c8 01       	movw	r24, r16
      c2:	b7 01       	movw	r22, r14
      c4:	0e 94 4d 04 	call	0x89a	; 0x89a <__fixsfsi>
      c8:	9b 01       	movw	r18, r22
      ca:	ac 01       	movw	r20, r24
      cc:	b9 01       	movw	r22, r18
      ce:	ca 01       	movw	r24, r20
      d0:	1f 91       	pop	r17
      d2:	0f 91       	pop	r16
      d4:	ff 90       	pop	r15
      d6:	ef 90       	pop	r14
      d8:	08 95       	ret

000000da <_fpadd_parts>:
      da:	a0 e0       	ldi	r26, 0x00	; 0
      dc:	b0 e0       	ldi	r27, 0x00	; 0
      de:	e3 e7       	ldi	r30, 0x73	; 115
      e0:	f0 e0       	ldi	r31, 0x00	; 0
      e2:	0c 94 1f 1d 	jmp	0x3a3e	; 0x3a3e <__prologue_saves__>
      e6:	dc 01       	movw	r26, r24
      e8:	2b 01       	movw	r4, r22
      ea:	fa 01       	movw	r30, r20
      ec:	9c 91       	ld	r25, X
      ee:	92 30       	cpi	r25, 0x02	; 2
      f0:	08 f4       	brcc	.+2      	; 0xf4 <_fpadd_parts+0x1a>
      f2:	39 c1       	rjmp	.+626    	; 0x366 <_fpadd_parts+0x28c>
      f4:	eb 01       	movw	r28, r22
      f6:	88 81       	ld	r24, Y
      f8:	82 30       	cpi	r24, 0x02	; 2
      fa:	08 f4       	brcc	.+2      	; 0xfe <_fpadd_parts+0x24>
      fc:	33 c1       	rjmp	.+614    	; 0x364 <_fpadd_parts+0x28a>
      fe:	94 30       	cpi	r25, 0x04	; 4
     100:	69 f4       	brne	.+26     	; 0x11c <_fpadd_parts+0x42>
     102:	84 30       	cpi	r24, 0x04	; 4
     104:	09 f0       	breq	.+2      	; 0x108 <_fpadd_parts+0x2e>
     106:	2f c1       	rjmp	.+606    	; 0x366 <_fpadd_parts+0x28c>
     108:	11 96       	adiw	r26, 0x01	; 1
     10a:	9c 91       	ld	r25, X
     10c:	11 97       	sbiw	r26, 0x01	; 1
     10e:	89 81       	ldd	r24, Y+1	; 0x01
     110:	98 17       	cp	r25, r24
     112:	09 f4       	brne	.+2      	; 0x116 <_fpadd_parts+0x3c>
     114:	28 c1       	rjmp	.+592    	; 0x366 <_fpadd_parts+0x28c>
     116:	a7 e8       	ldi	r26, 0x87	; 135
     118:	b0 e0       	ldi	r27, 0x00	; 0
     11a:	25 c1       	rjmp	.+586    	; 0x366 <_fpadd_parts+0x28c>
     11c:	84 30       	cpi	r24, 0x04	; 4
     11e:	09 f4       	brne	.+2      	; 0x122 <_fpadd_parts+0x48>
     120:	21 c1       	rjmp	.+578    	; 0x364 <_fpadd_parts+0x28a>
     122:	82 30       	cpi	r24, 0x02	; 2
     124:	a9 f4       	brne	.+42     	; 0x150 <_fpadd_parts+0x76>
     126:	92 30       	cpi	r25, 0x02	; 2
     128:	09 f0       	breq	.+2      	; 0x12c <_fpadd_parts+0x52>
     12a:	1d c1       	rjmp	.+570    	; 0x366 <_fpadd_parts+0x28c>
     12c:	9a 01       	movw	r18, r20
     12e:	ad 01       	movw	r20, r26
     130:	88 e0       	ldi	r24, 0x08	; 8
     132:	ea 01       	movw	r28, r20
     134:	09 90       	ld	r0, Y+
     136:	ae 01       	movw	r20, r28
     138:	e9 01       	movw	r28, r18
     13a:	09 92       	st	Y+, r0
     13c:	9e 01       	movw	r18, r28
     13e:	81 50       	subi	r24, 0x01	; 1
     140:	c1 f7       	brne	.-16     	; 0x132 <_fpadd_parts+0x58>
     142:	e2 01       	movw	r28, r4
     144:	89 81       	ldd	r24, Y+1	; 0x01
     146:	11 96       	adiw	r26, 0x01	; 1
     148:	9c 91       	ld	r25, X
     14a:	89 23       	and	r24, r25
     14c:	81 83       	std	Z+1, r24	; 0x01
     14e:	08 c1       	rjmp	.+528    	; 0x360 <_fpadd_parts+0x286>
     150:	92 30       	cpi	r25, 0x02	; 2
     152:	09 f4       	brne	.+2      	; 0x156 <_fpadd_parts+0x7c>
     154:	07 c1       	rjmp	.+526    	; 0x364 <_fpadd_parts+0x28a>
     156:	12 96       	adiw	r26, 0x02	; 2
     158:	2d 90       	ld	r2, X+
     15a:	3c 90       	ld	r3, X
     15c:	13 97       	sbiw	r26, 0x03	; 3
     15e:	eb 01       	movw	r28, r22
     160:	8a 81       	ldd	r24, Y+2	; 0x02
     162:	9b 81       	ldd	r25, Y+3	; 0x03
     164:	14 96       	adiw	r26, 0x04	; 4
     166:	ad 90       	ld	r10, X+
     168:	bd 90       	ld	r11, X+
     16a:	cd 90       	ld	r12, X+
     16c:	dc 90       	ld	r13, X
     16e:	17 97       	sbiw	r26, 0x07	; 7
     170:	ec 80       	ldd	r14, Y+4	; 0x04
     172:	fd 80       	ldd	r15, Y+5	; 0x05
     174:	0e 81       	ldd	r16, Y+6	; 0x06
     176:	1f 81       	ldd	r17, Y+7	; 0x07
     178:	91 01       	movw	r18, r2
     17a:	28 1b       	sub	r18, r24
     17c:	39 0b       	sbc	r19, r25
     17e:	b9 01       	movw	r22, r18
     180:	37 ff       	sbrs	r19, 7
     182:	04 c0       	rjmp	.+8      	; 0x18c <_fpadd_parts+0xb2>
     184:	66 27       	eor	r22, r22
     186:	77 27       	eor	r23, r23
     188:	62 1b       	sub	r22, r18
     18a:	73 0b       	sbc	r23, r19
     18c:	60 32       	cpi	r22, 0x20	; 32
     18e:	71 05       	cpc	r23, r1
     190:	0c f0       	brlt	.+2      	; 0x194 <_fpadd_parts+0xba>
     192:	61 c0       	rjmp	.+194    	; 0x256 <_fpadd_parts+0x17c>
     194:	12 16       	cp	r1, r18
     196:	13 06       	cpc	r1, r19
     198:	6c f5       	brge	.+90     	; 0x1f4 <_fpadd_parts+0x11a>
     19a:	37 01       	movw	r6, r14
     19c:	48 01       	movw	r8, r16
     19e:	06 2e       	mov	r0, r22
     1a0:	04 c0       	rjmp	.+8      	; 0x1aa <_fpadd_parts+0xd0>
     1a2:	96 94       	lsr	r9
     1a4:	87 94       	ror	r8
     1a6:	77 94       	ror	r7
     1a8:	67 94       	ror	r6
     1aa:	0a 94       	dec	r0
     1ac:	d2 f7       	brpl	.-12     	; 0x1a2 <_fpadd_parts+0xc8>
     1ae:	21 e0       	ldi	r18, 0x01	; 1
     1b0:	30 e0       	ldi	r19, 0x00	; 0
     1b2:	40 e0       	ldi	r20, 0x00	; 0
     1b4:	50 e0       	ldi	r21, 0x00	; 0
     1b6:	04 c0       	rjmp	.+8      	; 0x1c0 <_fpadd_parts+0xe6>
     1b8:	22 0f       	add	r18, r18
     1ba:	33 1f       	adc	r19, r19
     1bc:	44 1f       	adc	r20, r20
     1be:	55 1f       	adc	r21, r21
     1c0:	6a 95       	dec	r22
     1c2:	d2 f7       	brpl	.-12     	; 0x1b8 <_fpadd_parts+0xde>
     1c4:	21 50       	subi	r18, 0x01	; 1
     1c6:	30 40       	sbci	r19, 0x00	; 0
     1c8:	40 40       	sbci	r20, 0x00	; 0
     1ca:	50 40       	sbci	r21, 0x00	; 0
     1cc:	2e 21       	and	r18, r14
     1ce:	3f 21       	and	r19, r15
     1d0:	40 23       	and	r20, r16
     1d2:	51 23       	and	r21, r17
     1d4:	21 15       	cp	r18, r1
     1d6:	31 05       	cpc	r19, r1
     1d8:	41 05       	cpc	r20, r1
     1da:	51 05       	cpc	r21, r1
     1dc:	21 f0       	breq	.+8      	; 0x1e6 <_fpadd_parts+0x10c>
     1de:	21 e0       	ldi	r18, 0x01	; 1
     1e0:	30 e0       	ldi	r19, 0x00	; 0
     1e2:	40 e0       	ldi	r20, 0x00	; 0
     1e4:	50 e0       	ldi	r21, 0x00	; 0
     1e6:	79 01       	movw	r14, r18
     1e8:	8a 01       	movw	r16, r20
     1ea:	e6 28       	or	r14, r6
     1ec:	f7 28       	or	r15, r7
     1ee:	08 29       	or	r16, r8
     1f0:	19 29       	or	r17, r9
     1f2:	3c c0       	rjmp	.+120    	; 0x26c <_fpadd_parts+0x192>
     1f4:	23 2b       	or	r18, r19
     1f6:	d1 f1       	breq	.+116    	; 0x26c <_fpadd_parts+0x192>
     1f8:	26 0e       	add	r2, r22
     1fa:	37 1e       	adc	r3, r23
     1fc:	35 01       	movw	r6, r10
     1fe:	46 01       	movw	r8, r12
     200:	06 2e       	mov	r0, r22
     202:	04 c0       	rjmp	.+8      	; 0x20c <_fpadd_parts+0x132>
     204:	96 94       	lsr	r9
     206:	87 94       	ror	r8
     208:	77 94       	ror	r7
     20a:	67 94       	ror	r6
     20c:	0a 94       	dec	r0
     20e:	d2 f7       	brpl	.-12     	; 0x204 <_fpadd_parts+0x12a>
     210:	21 e0       	ldi	r18, 0x01	; 1
     212:	30 e0       	ldi	r19, 0x00	; 0
     214:	40 e0       	ldi	r20, 0x00	; 0
     216:	50 e0       	ldi	r21, 0x00	; 0
     218:	04 c0       	rjmp	.+8      	; 0x222 <_fpadd_parts+0x148>
     21a:	22 0f       	add	r18, r18
     21c:	33 1f       	adc	r19, r19
     21e:	44 1f       	adc	r20, r20
     220:	55 1f       	adc	r21, r21
     222:	6a 95       	dec	r22
     224:	d2 f7       	brpl	.-12     	; 0x21a <_fpadd_parts+0x140>
     226:	21 50       	subi	r18, 0x01	; 1
     228:	30 40       	sbci	r19, 0x00	; 0
     22a:	40 40       	sbci	r20, 0x00	; 0
     22c:	50 40       	sbci	r21, 0x00	; 0
     22e:	2a 21       	and	r18, r10
     230:	3b 21       	and	r19, r11
     232:	4c 21       	and	r20, r12
     234:	5d 21       	and	r21, r13
     236:	21 15       	cp	r18, r1
     238:	31 05       	cpc	r19, r1
     23a:	41 05       	cpc	r20, r1
     23c:	51 05       	cpc	r21, r1
     23e:	21 f0       	breq	.+8      	; 0x248 <_fpadd_parts+0x16e>
     240:	21 e0       	ldi	r18, 0x01	; 1
     242:	30 e0       	ldi	r19, 0x00	; 0
     244:	40 e0       	ldi	r20, 0x00	; 0
     246:	50 e0       	ldi	r21, 0x00	; 0
     248:	59 01       	movw	r10, r18
     24a:	6a 01       	movw	r12, r20
     24c:	a6 28       	or	r10, r6
     24e:	b7 28       	or	r11, r7
     250:	c8 28       	or	r12, r8
     252:	d9 28       	or	r13, r9
     254:	0b c0       	rjmp	.+22     	; 0x26c <_fpadd_parts+0x192>
     256:	82 15       	cp	r24, r2
     258:	93 05       	cpc	r25, r3
     25a:	2c f0       	brlt	.+10     	; 0x266 <_fpadd_parts+0x18c>
     25c:	1c 01       	movw	r2, r24
     25e:	aa 24       	eor	r10, r10
     260:	bb 24       	eor	r11, r11
     262:	65 01       	movw	r12, r10
     264:	03 c0       	rjmp	.+6      	; 0x26c <_fpadd_parts+0x192>
     266:	ee 24       	eor	r14, r14
     268:	ff 24       	eor	r15, r15
     26a:	87 01       	movw	r16, r14
     26c:	11 96       	adiw	r26, 0x01	; 1
     26e:	9c 91       	ld	r25, X
     270:	d2 01       	movw	r26, r4
     272:	11 96       	adiw	r26, 0x01	; 1
     274:	8c 91       	ld	r24, X
     276:	98 17       	cp	r25, r24
     278:	09 f4       	brne	.+2      	; 0x27c <_fpadd_parts+0x1a2>
     27a:	45 c0       	rjmp	.+138    	; 0x306 <_fpadd_parts+0x22c>
     27c:	99 23       	and	r25, r25
     27e:	39 f0       	breq	.+14     	; 0x28e <_fpadd_parts+0x1b4>
     280:	a8 01       	movw	r20, r16
     282:	97 01       	movw	r18, r14
     284:	2a 19       	sub	r18, r10
     286:	3b 09       	sbc	r19, r11
     288:	4c 09       	sbc	r20, r12
     28a:	5d 09       	sbc	r21, r13
     28c:	06 c0       	rjmp	.+12     	; 0x29a <_fpadd_parts+0x1c0>
     28e:	a6 01       	movw	r20, r12
     290:	95 01       	movw	r18, r10
     292:	2e 19       	sub	r18, r14
     294:	3f 09       	sbc	r19, r15
     296:	40 0b       	sbc	r20, r16
     298:	51 0b       	sbc	r21, r17
     29a:	57 fd       	sbrc	r21, 7
     29c:	08 c0       	rjmp	.+16     	; 0x2ae <_fpadd_parts+0x1d4>
     29e:	11 82       	std	Z+1, r1	; 0x01
     2a0:	33 82       	std	Z+3, r3	; 0x03
     2a2:	22 82       	std	Z+2, r2	; 0x02
     2a4:	24 83       	std	Z+4, r18	; 0x04
     2a6:	35 83       	std	Z+5, r19	; 0x05
     2a8:	46 83       	std	Z+6, r20	; 0x06
     2aa:	57 83       	std	Z+7, r21	; 0x07
     2ac:	1d c0       	rjmp	.+58     	; 0x2e8 <_fpadd_parts+0x20e>
     2ae:	81 e0       	ldi	r24, 0x01	; 1
     2b0:	81 83       	std	Z+1, r24	; 0x01
     2b2:	33 82       	std	Z+3, r3	; 0x03
     2b4:	22 82       	std	Z+2, r2	; 0x02
     2b6:	88 27       	eor	r24, r24
     2b8:	99 27       	eor	r25, r25
     2ba:	dc 01       	movw	r26, r24
     2bc:	82 1b       	sub	r24, r18
     2be:	93 0b       	sbc	r25, r19
     2c0:	a4 0b       	sbc	r26, r20
     2c2:	b5 0b       	sbc	r27, r21
     2c4:	84 83       	std	Z+4, r24	; 0x04
     2c6:	95 83       	std	Z+5, r25	; 0x05
     2c8:	a6 83       	std	Z+6, r26	; 0x06
     2ca:	b7 83       	std	Z+7, r27	; 0x07
     2cc:	0d c0       	rjmp	.+26     	; 0x2e8 <_fpadd_parts+0x20e>
     2ce:	22 0f       	add	r18, r18
     2d0:	33 1f       	adc	r19, r19
     2d2:	44 1f       	adc	r20, r20
     2d4:	55 1f       	adc	r21, r21
     2d6:	24 83       	std	Z+4, r18	; 0x04
     2d8:	35 83       	std	Z+5, r19	; 0x05
     2da:	46 83       	std	Z+6, r20	; 0x06
     2dc:	57 83       	std	Z+7, r21	; 0x07
     2de:	82 81       	ldd	r24, Z+2	; 0x02
     2e0:	93 81       	ldd	r25, Z+3	; 0x03
     2e2:	01 97       	sbiw	r24, 0x01	; 1
     2e4:	93 83       	std	Z+3, r25	; 0x03
     2e6:	82 83       	std	Z+2, r24	; 0x02
     2e8:	24 81       	ldd	r18, Z+4	; 0x04
     2ea:	35 81       	ldd	r19, Z+5	; 0x05
     2ec:	46 81       	ldd	r20, Z+6	; 0x06
     2ee:	57 81       	ldd	r21, Z+7	; 0x07
     2f0:	da 01       	movw	r26, r20
     2f2:	c9 01       	movw	r24, r18
     2f4:	01 97       	sbiw	r24, 0x01	; 1
     2f6:	a1 09       	sbc	r26, r1
     2f8:	b1 09       	sbc	r27, r1
     2fa:	8f 5f       	subi	r24, 0xFF	; 255
     2fc:	9f 4f       	sbci	r25, 0xFF	; 255
     2fe:	af 4f       	sbci	r26, 0xFF	; 255
     300:	bf 43       	sbci	r27, 0x3F	; 63
     302:	28 f3       	brcs	.-54     	; 0x2ce <_fpadd_parts+0x1f4>
     304:	0b c0       	rjmp	.+22     	; 0x31c <_fpadd_parts+0x242>
     306:	91 83       	std	Z+1, r25	; 0x01
     308:	33 82       	std	Z+3, r3	; 0x03
     30a:	22 82       	std	Z+2, r2	; 0x02
     30c:	ea 0c       	add	r14, r10
     30e:	fb 1c       	adc	r15, r11
     310:	0c 1d       	adc	r16, r12
     312:	1d 1d       	adc	r17, r13
     314:	e4 82       	std	Z+4, r14	; 0x04
     316:	f5 82       	std	Z+5, r15	; 0x05
     318:	06 83       	std	Z+6, r16	; 0x06
     31a:	17 83       	std	Z+7, r17	; 0x07
     31c:	83 e0       	ldi	r24, 0x03	; 3
     31e:	80 83       	st	Z, r24
     320:	24 81       	ldd	r18, Z+4	; 0x04
     322:	35 81       	ldd	r19, Z+5	; 0x05
     324:	46 81       	ldd	r20, Z+6	; 0x06
     326:	57 81       	ldd	r21, Z+7	; 0x07
     328:	57 ff       	sbrs	r21, 7
     32a:	1a c0       	rjmp	.+52     	; 0x360 <_fpadd_parts+0x286>
     32c:	c9 01       	movw	r24, r18
     32e:	aa 27       	eor	r26, r26
     330:	97 fd       	sbrc	r25, 7
     332:	a0 95       	com	r26
     334:	ba 2f       	mov	r27, r26
     336:	81 70       	andi	r24, 0x01	; 1
     338:	90 70       	andi	r25, 0x00	; 0
     33a:	a0 70       	andi	r26, 0x00	; 0
     33c:	b0 70       	andi	r27, 0x00	; 0
     33e:	56 95       	lsr	r21
     340:	47 95       	ror	r20
     342:	37 95       	ror	r19
     344:	27 95       	ror	r18
     346:	82 2b       	or	r24, r18
     348:	93 2b       	or	r25, r19
     34a:	a4 2b       	or	r26, r20
     34c:	b5 2b       	or	r27, r21
     34e:	84 83       	std	Z+4, r24	; 0x04
     350:	95 83       	std	Z+5, r25	; 0x05
     352:	a6 83       	std	Z+6, r26	; 0x06
     354:	b7 83       	std	Z+7, r27	; 0x07
     356:	82 81       	ldd	r24, Z+2	; 0x02
     358:	93 81       	ldd	r25, Z+3	; 0x03
     35a:	01 96       	adiw	r24, 0x01	; 1
     35c:	93 83       	std	Z+3, r25	; 0x03
     35e:	82 83       	std	Z+2, r24	; 0x02
     360:	df 01       	movw	r26, r30
     362:	01 c0       	rjmp	.+2      	; 0x366 <_fpadd_parts+0x28c>
     364:	d2 01       	movw	r26, r4
     366:	cd 01       	movw	r24, r26
     368:	cd b7       	in	r28, 0x3d	; 61
     36a:	de b7       	in	r29, 0x3e	; 62
     36c:	e2 e1       	ldi	r30, 0x12	; 18
     36e:	0c 94 3b 1d 	jmp	0x3a76	; 0x3a76 <__epilogue_restores__>

00000372 <__subsf3>:
     372:	a0 e2       	ldi	r26, 0x20	; 32
     374:	b0 e0       	ldi	r27, 0x00	; 0
     376:	ef eb       	ldi	r30, 0xBF	; 191
     378:	f1 e0       	ldi	r31, 0x01	; 1
     37a:	0c 94 2b 1d 	jmp	0x3a56	; 0x3a56 <__prologue_saves__+0x18>
     37e:	69 83       	std	Y+1, r22	; 0x01
     380:	7a 83       	std	Y+2, r23	; 0x02
     382:	8b 83       	std	Y+3, r24	; 0x03
     384:	9c 83       	std	Y+4, r25	; 0x04
     386:	2d 83       	std	Y+5, r18	; 0x05
     388:	3e 83       	std	Y+6, r19	; 0x06
     38a:	4f 83       	std	Y+7, r20	; 0x07
     38c:	58 87       	std	Y+8, r21	; 0x08
     38e:	e9 e0       	ldi	r30, 0x09	; 9
     390:	ee 2e       	mov	r14, r30
     392:	f1 2c       	mov	r15, r1
     394:	ec 0e       	add	r14, r28
     396:	fd 1e       	adc	r15, r29
     398:	ce 01       	movw	r24, r28
     39a:	01 96       	adiw	r24, 0x01	; 1
     39c:	b7 01       	movw	r22, r14
     39e:	0e 94 3e 06 	call	0xc7c	; 0xc7c <__unpack_f>
     3a2:	8e 01       	movw	r16, r28
     3a4:	0f 5e       	subi	r16, 0xEF	; 239
     3a6:	1f 4f       	sbci	r17, 0xFF	; 255
     3a8:	ce 01       	movw	r24, r28
     3aa:	05 96       	adiw	r24, 0x05	; 5
     3ac:	b8 01       	movw	r22, r16
     3ae:	0e 94 3e 06 	call	0xc7c	; 0xc7c <__unpack_f>
     3b2:	8a 89       	ldd	r24, Y+18	; 0x12
     3b4:	91 e0       	ldi	r25, 0x01	; 1
     3b6:	89 27       	eor	r24, r25
     3b8:	8a 8b       	std	Y+18, r24	; 0x12
     3ba:	c7 01       	movw	r24, r14
     3bc:	b8 01       	movw	r22, r16
     3be:	ae 01       	movw	r20, r28
     3c0:	47 5e       	subi	r20, 0xE7	; 231
     3c2:	5f 4f       	sbci	r21, 0xFF	; 255
     3c4:	0e 94 6d 00 	call	0xda	; 0xda <_fpadd_parts>
     3c8:	0e 94 69 05 	call	0xad2	; 0xad2 <__pack_f>
     3cc:	a0 96       	adiw	r28, 0x20	; 32
     3ce:	e6 e0       	ldi	r30, 0x06	; 6
     3d0:	0c 94 47 1d 	jmp	0x3a8e	; 0x3a8e <__epilogue_restores__+0x18>

000003d4 <__addsf3>:
     3d4:	a0 e2       	ldi	r26, 0x20	; 32
     3d6:	b0 e0       	ldi	r27, 0x00	; 0
     3d8:	e0 ef       	ldi	r30, 0xF0	; 240
     3da:	f1 e0       	ldi	r31, 0x01	; 1
     3dc:	0c 94 2b 1d 	jmp	0x3a56	; 0x3a56 <__prologue_saves__+0x18>
     3e0:	69 83       	std	Y+1, r22	; 0x01
     3e2:	7a 83       	std	Y+2, r23	; 0x02
     3e4:	8b 83       	std	Y+3, r24	; 0x03
     3e6:	9c 83       	std	Y+4, r25	; 0x04
     3e8:	2d 83       	std	Y+5, r18	; 0x05
     3ea:	3e 83       	std	Y+6, r19	; 0x06
     3ec:	4f 83       	std	Y+7, r20	; 0x07
     3ee:	58 87       	std	Y+8, r21	; 0x08
     3f0:	f9 e0       	ldi	r31, 0x09	; 9
     3f2:	ef 2e       	mov	r14, r31
     3f4:	f1 2c       	mov	r15, r1
     3f6:	ec 0e       	add	r14, r28
     3f8:	fd 1e       	adc	r15, r29
     3fa:	ce 01       	movw	r24, r28
     3fc:	01 96       	adiw	r24, 0x01	; 1
     3fe:	b7 01       	movw	r22, r14
     400:	0e 94 3e 06 	call	0xc7c	; 0xc7c <__unpack_f>
     404:	8e 01       	movw	r16, r28
     406:	0f 5e       	subi	r16, 0xEF	; 239
     408:	1f 4f       	sbci	r17, 0xFF	; 255
     40a:	ce 01       	movw	r24, r28
     40c:	05 96       	adiw	r24, 0x05	; 5
     40e:	b8 01       	movw	r22, r16
     410:	0e 94 3e 06 	call	0xc7c	; 0xc7c <__unpack_f>
     414:	c7 01       	movw	r24, r14
     416:	b8 01       	movw	r22, r16
     418:	ae 01       	movw	r20, r28
     41a:	47 5e       	subi	r20, 0xE7	; 231
     41c:	5f 4f       	sbci	r21, 0xFF	; 255
     41e:	0e 94 6d 00 	call	0xda	; 0xda <_fpadd_parts>
     422:	0e 94 69 05 	call	0xad2	; 0xad2 <__pack_f>
     426:	a0 96       	adiw	r28, 0x20	; 32
     428:	e6 e0       	ldi	r30, 0x06	; 6
     42a:	0c 94 47 1d 	jmp	0x3a8e	; 0x3a8e <__epilogue_restores__+0x18>

0000042e <__mulsf3>:
     42e:	a0 e2       	ldi	r26, 0x20	; 32
     430:	b0 e0       	ldi	r27, 0x00	; 0
     432:	ed e1       	ldi	r30, 0x1D	; 29
     434:	f2 e0       	ldi	r31, 0x02	; 2
     436:	0c 94 1f 1d 	jmp	0x3a3e	; 0x3a3e <__prologue_saves__>
     43a:	69 83       	std	Y+1, r22	; 0x01
     43c:	7a 83       	std	Y+2, r23	; 0x02
     43e:	8b 83       	std	Y+3, r24	; 0x03
     440:	9c 83       	std	Y+4, r25	; 0x04
     442:	2d 83       	std	Y+5, r18	; 0x05
     444:	3e 83       	std	Y+6, r19	; 0x06
     446:	4f 83       	std	Y+7, r20	; 0x07
     448:	58 87       	std	Y+8, r21	; 0x08
     44a:	ce 01       	movw	r24, r28
     44c:	01 96       	adiw	r24, 0x01	; 1
     44e:	be 01       	movw	r22, r28
     450:	67 5f       	subi	r22, 0xF7	; 247
     452:	7f 4f       	sbci	r23, 0xFF	; 255
     454:	0e 94 3e 06 	call	0xc7c	; 0xc7c <__unpack_f>
     458:	ce 01       	movw	r24, r28
     45a:	05 96       	adiw	r24, 0x05	; 5
     45c:	be 01       	movw	r22, r28
     45e:	6f 5e       	subi	r22, 0xEF	; 239
     460:	7f 4f       	sbci	r23, 0xFF	; 255
     462:	0e 94 3e 06 	call	0xc7c	; 0xc7c <__unpack_f>
     466:	99 85       	ldd	r25, Y+9	; 0x09
     468:	92 30       	cpi	r25, 0x02	; 2
     46a:	88 f0       	brcs	.+34     	; 0x48e <__mulsf3+0x60>
     46c:	89 89       	ldd	r24, Y+17	; 0x11
     46e:	82 30       	cpi	r24, 0x02	; 2
     470:	c8 f0       	brcs	.+50     	; 0x4a4 <__mulsf3+0x76>
     472:	94 30       	cpi	r25, 0x04	; 4
     474:	19 f4       	brne	.+6      	; 0x47c <__mulsf3+0x4e>
     476:	82 30       	cpi	r24, 0x02	; 2
     478:	51 f4       	brne	.+20     	; 0x48e <__mulsf3+0x60>
     47a:	04 c0       	rjmp	.+8      	; 0x484 <__mulsf3+0x56>
     47c:	84 30       	cpi	r24, 0x04	; 4
     47e:	29 f4       	brne	.+10     	; 0x48a <__mulsf3+0x5c>
     480:	92 30       	cpi	r25, 0x02	; 2
     482:	81 f4       	brne	.+32     	; 0x4a4 <__mulsf3+0x76>
     484:	87 e8       	ldi	r24, 0x87	; 135
     486:	90 e0       	ldi	r25, 0x00	; 0
     488:	c6 c0       	rjmp	.+396    	; 0x616 <__mulsf3+0x1e8>
     48a:	92 30       	cpi	r25, 0x02	; 2
     48c:	49 f4       	brne	.+18     	; 0x4a0 <__mulsf3+0x72>
     48e:	20 e0       	ldi	r18, 0x00	; 0
     490:	9a 85       	ldd	r25, Y+10	; 0x0a
     492:	8a 89       	ldd	r24, Y+18	; 0x12
     494:	98 13       	cpse	r25, r24
     496:	21 e0       	ldi	r18, 0x01	; 1
     498:	2a 87       	std	Y+10, r18	; 0x0a
     49a:	ce 01       	movw	r24, r28
     49c:	09 96       	adiw	r24, 0x09	; 9
     49e:	bb c0       	rjmp	.+374    	; 0x616 <__mulsf3+0x1e8>
     4a0:	82 30       	cpi	r24, 0x02	; 2
     4a2:	49 f4       	brne	.+18     	; 0x4b6 <__mulsf3+0x88>
     4a4:	20 e0       	ldi	r18, 0x00	; 0
     4a6:	9a 85       	ldd	r25, Y+10	; 0x0a
     4a8:	8a 89       	ldd	r24, Y+18	; 0x12
     4aa:	98 13       	cpse	r25, r24
     4ac:	21 e0       	ldi	r18, 0x01	; 1
     4ae:	2a 8b       	std	Y+18, r18	; 0x12
     4b0:	ce 01       	movw	r24, r28
     4b2:	41 96       	adiw	r24, 0x11	; 17
     4b4:	b0 c0       	rjmp	.+352    	; 0x616 <__mulsf3+0x1e8>
     4b6:	2d 84       	ldd	r2, Y+13	; 0x0d
     4b8:	3e 84       	ldd	r3, Y+14	; 0x0e
     4ba:	4f 84       	ldd	r4, Y+15	; 0x0f
     4bc:	58 88       	ldd	r5, Y+16	; 0x10
     4be:	6d 88       	ldd	r6, Y+21	; 0x15
     4c0:	7e 88       	ldd	r7, Y+22	; 0x16
     4c2:	8f 88       	ldd	r8, Y+23	; 0x17
     4c4:	98 8c       	ldd	r9, Y+24	; 0x18
     4c6:	ee 24       	eor	r14, r14
     4c8:	ff 24       	eor	r15, r15
     4ca:	87 01       	movw	r16, r14
     4cc:	aa 24       	eor	r10, r10
     4ce:	bb 24       	eor	r11, r11
     4d0:	65 01       	movw	r12, r10
     4d2:	40 e0       	ldi	r20, 0x00	; 0
     4d4:	50 e0       	ldi	r21, 0x00	; 0
     4d6:	60 e0       	ldi	r22, 0x00	; 0
     4d8:	70 e0       	ldi	r23, 0x00	; 0
     4da:	e0 e0       	ldi	r30, 0x00	; 0
     4dc:	f0 e0       	ldi	r31, 0x00	; 0
     4de:	c1 01       	movw	r24, r2
     4e0:	81 70       	andi	r24, 0x01	; 1
     4e2:	90 70       	andi	r25, 0x00	; 0
     4e4:	89 2b       	or	r24, r25
     4e6:	e9 f0       	breq	.+58     	; 0x522 <__mulsf3+0xf4>
     4e8:	e6 0c       	add	r14, r6
     4ea:	f7 1c       	adc	r15, r7
     4ec:	08 1d       	adc	r16, r8
     4ee:	19 1d       	adc	r17, r9
     4f0:	9a 01       	movw	r18, r20
     4f2:	ab 01       	movw	r20, r22
     4f4:	2a 0d       	add	r18, r10
     4f6:	3b 1d       	adc	r19, r11
     4f8:	4c 1d       	adc	r20, r12
     4fa:	5d 1d       	adc	r21, r13
     4fc:	80 e0       	ldi	r24, 0x00	; 0
     4fe:	90 e0       	ldi	r25, 0x00	; 0
     500:	a0 e0       	ldi	r26, 0x00	; 0
     502:	b0 e0       	ldi	r27, 0x00	; 0
     504:	e6 14       	cp	r14, r6
     506:	f7 04       	cpc	r15, r7
     508:	08 05       	cpc	r16, r8
     50a:	19 05       	cpc	r17, r9
     50c:	20 f4       	brcc	.+8      	; 0x516 <__mulsf3+0xe8>
     50e:	81 e0       	ldi	r24, 0x01	; 1
     510:	90 e0       	ldi	r25, 0x00	; 0
     512:	a0 e0       	ldi	r26, 0x00	; 0
     514:	b0 e0       	ldi	r27, 0x00	; 0
     516:	ba 01       	movw	r22, r20
     518:	a9 01       	movw	r20, r18
     51a:	48 0f       	add	r20, r24
     51c:	59 1f       	adc	r21, r25
     51e:	6a 1f       	adc	r22, r26
     520:	7b 1f       	adc	r23, r27
     522:	aa 0c       	add	r10, r10
     524:	bb 1c       	adc	r11, r11
     526:	cc 1c       	adc	r12, r12
     528:	dd 1c       	adc	r13, r13
     52a:	97 fe       	sbrs	r9, 7
     52c:	08 c0       	rjmp	.+16     	; 0x53e <__mulsf3+0x110>
     52e:	81 e0       	ldi	r24, 0x01	; 1
     530:	90 e0       	ldi	r25, 0x00	; 0
     532:	a0 e0       	ldi	r26, 0x00	; 0
     534:	b0 e0       	ldi	r27, 0x00	; 0
     536:	a8 2a       	or	r10, r24
     538:	b9 2a       	or	r11, r25
     53a:	ca 2a       	or	r12, r26
     53c:	db 2a       	or	r13, r27
     53e:	31 96       	adiw	r30, 0x01	; 1
     540:	e0 32       	cpi	r30, 0x20	; 32
     542:	f1 05       	cpc	r31, r1
     544:	49 f0       	breq	.+18     	; 0x558 <__mulsf3+0x12a>
     546:	66 0c       	add	r6, r6
     548:	77 1c       	adc	r7, r7
     54a:	88 1c       	adc	r8, r8
     54c:	99 1c       	adc	r9, r9
     54e:	56 94       	lsr	r5
     550:	47 94       	ror	r4
     552:	37 94       	ror	r3
     554:	27 94       	ror	r2
     556:	c3 cf       	rjmp	.-122    	; 0x4de <__mulsf3+0xb0>
     558:	fa 85       	ldd	r31, Y+10	; 0x0a
     55a:	ea 89       	ldd	r30, Y+18	; 0x12
     55c:	2b 89       	ldd	r18, Y+19	; 0x13
     55e:	3c 89       	ldd	r19, Y+20	; 0x14
     560:	8b 85       	ldd	r24, Y+11	; 0x0b
     562:	9c 85       	ldd	r25, Y+12	; 0x0c
     564:	28 0f       	add	r18, r24
     566:	39 1f       	adc	r19, r25
     568:	2e 5f       	subi	r18, 0xFE	; 254
     56a:	3f 4f       	sbci	r19, 0xFF	; 255
     56c:	17 c0       	rjmp	.+46     	; 0x59c <__mulsf3+0x16e>
     56e:	ca 01       	movw	r24, r20
     570:	81 70       	andi	r24, 0x01	; 1
     572:	90 70       	andi	r25, 0x00	; 0
     574:	89 2b       	or	r24, r25
     576:	61 f0       	breq	.+24     	; 0x590 <__mulsf3+0x162>
     578:	16 95       	lsr	r17
     57a:	07 95       	ror	r16
     57c:	f7 94       	ror	r15
     57e:	e7 94       	ror	r14
     580:	80 e0       	ldi	r24, 0x00	; 0
     582:	90 e0       	ldi	r25, 0x00	; 0
     584:	a0 e0       	ldi	r26, 0x00	; 0
     586:	b0 e8       	ldi	r27, 0x80	; 128
     588:	e8 2a       	or	r14, r24
     58a:	f9 2a       	or	r15, r25
     58c:	0a 2b       	or	r16, r26
     58e:	1b 2b       	or	r17, r27
     590:	76 95       	lsr	r23
     592:	67 95       	ror	r22
     594:	57 95       	ror	r21
     596:	47 95       	ror	r20
     598:	2f 5f       	subi	r18, 0xFF	; 255
     59a:	3f 4f       	sbci	r19, 0xFF	; 255
     59c:	77 fd       	sbrc	r23, 7
     59e:	e7 cf       	rjmp	.-50     	; 0x56e <__mulsf3+0x140>
     5a0:	0c c0       	rjmp	.+24     	; 0x5ba <__mulsf3+0x18c>
     5a2:	44 0f       	add	r20, r20
     5a4:	55 1f       	adc	r21, r21
     5a6:	66 1f       	adc	r22, r22
     5a8:	77 1f       	adc	r23, r23
     5aa:	17 fd       	sbrc	r17, 7
     5ac:	41 60       	ori	r20, 0x01	; 1
     5ae:	ee 0c       	add	r14, r14
     5b0:	ff 1c       	adc	r15, r15
     5b2:	00 1f       	adc	r16, r16
     5b4:	11 1f       	adc	r17, r17
     5b6:	21 50       	subi	r18, 0x01	; 1
     5b8:	30 40       	sbci	r19, 0x00	; 0
     5ba:	40 30       	cpi	r20, 0x00	; 0
     5bc:	90 e0       	ldi	r25, 0x00	; 0
     5be:	59 07       	cpc	r21, r25
     5c0:	90 e0       	ldi	r25, 0x00	; 0
     5c2:	69 07       	cpc	r22, r25
     5c4:	90 e4       	ldi	r25, 0x40	; 64
     5c6:	79 07       	cpc	r23, r25
     5c8:	60 f3       	brcs	.-40     	; 0x5a2 <__mulsf3+0x174>
     5ca:	2b 8f       	std	Y+27, r18	; 0x1b
     5cc:	3c 8f       	std	Y+28, r19	; 0x1c
     5ce:	db 01       	movw	r26, r22
     5d0:	ca 01       	movw	r24, r20
     5d2:	8f 77       	andi	r24, 0x7F	; 127
     5d4:	90 70       	andi	r25, 0x00	; 0
     5d6:	a0 70       	andi	r26, 0x00	; 0
     5d8:	b0 70       	andi	r27, 0x00	; 0
     5da:	80 34       	cpi	r24, 0x40	; 64
     5dc:	91 05       	cpc	r25, r1
     5de:	a1 05       	cpc	r26, r1
     5e0:	b1 05       	cpc	r27, r1
     5e2:	61 f4       	brne	.+24     	; 0x5fc <__mulsf3+0x1ce>
     5e4:	47 fd       	sbrc	r20, 7
     5e6:	0a c0       	rjmp	.+20     	; 0x5fc <__mulsf3+0x1ce>
     5e8:	e1 14       	cp	r14, r1
     5ea:	f1 04       	cpc	r15, r1
     5ec:	01 05       	cpc	r16, r1
     5ee:	11 05       	cpc	r17, r1
     5f0:	29 f0       	breq	.+10     	; 0x5fc <__mulsf3+0x1ce>
     5f2:	40 5c       	subi	r20, 0xC0	; 192
     5f4:	5f 4f       	sbci	r21, 0xFF	; 255
     5f6:	6f 4f       	sbci	r22, 0xFF	; 255
     5f8:	7f 4f       	sbci	r23, 0xFF	; 255
     5fa:	40 78       	andi	r20, 0x80	; 128
     5fc:	1a 8e       	std	Y+26, r1	; 0x1a
     5fe:	fe 17       	cp	r31, r30
     600:	11 f0       	breq	.+4      	; 0x606 <__mulsf3+0x1d8>
     602:	81 e0       	ldi	r24, 0x01	; 1
     604:	8a 8f       	std	Y+26, r24	; 0x1a
     606:	4d 8f       	std	Y+29, r20	; 0x1d
     608:	5e 8f       	std	Y+30, r21	; 0x1e
     60a:	6f 8f       	std	Y+31, r22	; 0x1f
     60c:	78 a3       	std	Y+32, r23	; 0x20
     60e:	83 e0       	ldi	r24, 0x03	; 3
     610:	89 8f       	std	Y+25, r24	; 0x19
     612:	ce 01       	movw	r24, r28
     614:	49 96       	adiw	r24, 0x19	; 25
     616:	0e 94 69 05 	call	0xad2	; 0xad2 <__pack_f>
     61a:	a0 96       	adiw	r28, 0x20	; 32
     61c:	e2 e1       	ldi	r30, 0x12	; 18
     61e:	0c 94 3b 1d 	jmp	0x3a76	; 0x3a76 <__epilogue_restores__>

00000622 <__divsf3>:
     622:	a8 e1       	ldi	r26, 0x18	; 24
     624:	b0 e0       	ldi	r27, 0x00	; 0
     626:	e7 e1       	ldi	r30, 0x17	; 23
     628:	f3 e0       	ldi	r31, 0x03	; 3
     62a:	0c 94 27 1d 	jmp	0x3a4e	; 0x3a4e <__prologue_saves__+0x10>
     62e:	69 83       	std	Y+1, r22	; 0x01
     630:	7a 83       	std	Y+2, r23	; 0x02
     632:	8b 83       	std	Y+3, r24	; 0x03
     634:	9c 83       	std	Y+4, r25	; 0x04
     636:	2d 83       	std	Y+5, r18	; 0x05
     638:	3e 83       	std	Y+6, r19	; 0x06
     63a:	4f 83       	std	Y+7, r20	; 0x07
     63c:	58 87       	std	Y+8, r21	; 0x08
     63e:	b9 e0       	ldi	r27, 0x09	; 9
     640:	eb 2e       	mov	r14, r27
     642:	f1 2c       	mov	r15, r1
     644:	ec 0e       	add	r14, r28
     646:	fd 1e       	adc	r15, r29
     648:	ce 01       	movw	r24, r28
     64a:	01 96       	adiw	r24, 0x01	; 1
     64c:	b7 01       	movw	r22, r14
     64e:	0e 94 3e 06 	call	0xc7c	; 0xc7c <__unpack_f>
     652:	8e 01       	movw	r16, r28
     654:	0f 5e       	subi	r16, 0xEF	; 239
     656:	1f 4f       	sbci	r17, 0xFF	; 255
     658:	ce 01       	movw	r24, r28
     65a:	05 96       	adiw	r24, 0x05	; 5
     65c:	b8 01       	movw	r22, r16
     65e:	0e 94 3e 06 	call	0xc7c	; 0xc7c <__unpack_f>
     662:	29 85       	ldd	r18, Y+9	; 0x09
     664:	22 30       	cpi	r18, 0x02	; 2
     666:	08 f4       	brcc	.+2      	; 0x66a <__divsf3+0x48>
     668:	7e c0       	rjmp	.+252    	; 0x766 <__divsf3+0x144>
     66a:	39 89       	ldd	r19, Y+17	; 0x11
     66c:	32 30       	cpi	r19, 0x02	; 2
     66e:	10 f4       	brcc	.+4      	; 0x674 <__divsf3+0x52>
     670:	b8 01       	movw	r22, r16
     672:	7c c0       	rjmp	.+248    	; 0x76c <__divsf3+0x14a>
     674:	8a 85       	ldd	r24, Y+10	; 0x0a
     676:	9a 89       	ldd	r25, Y+18	; 0x12
     678:	89 27       	eor	r24, r25
     67a:	8a 87       	std	Y+10, r24	; 0x0a
     67c:	24 30       	cpi	r18, 0x04	; 4
     67e:	11 f0       	breq	.+4      	; 0x684 <__divsf3+0x62>
     680:	22 30       	cpi	r18, 0x02	; 2
     682:	31 f4       	brne	.+12     	; 0x690 <__divsf3+0x6e>
     684:	23 17       	cp	r18, r19
     686:	09 f0       	breq	.+2      	; 0x68a <__divsf3+0x68>
     688:	6e c0       	rjmp	.+220    	; 0x766 <__divsf3+0x144>
     68a:	67 e8       	ldi	r22, 0x87	; 135
     68c:	70 e0       	ldi	r23, 0x00	; 0
     68e:	6e c0       	rjmp	.+220    	; 0x76c <__divsf3+0x14a>
     690:	34 30       	cpi	r19, 0x04	; 4
     692:	39 f4       	brne	.+14     	; 0x6a2 <__divsf3+0x80>
     694:	1d 86       	std	Y+13, r1	; 0x0d
     696:	1e 86       	std	Y+14, r1	; 0x0e
     698:	1f 86       	std	Y+15, r1	; 0x0f
     69a:	18 8a       	std	Y+16, r1	; 0x10
     69c:	1c 86       	std	Y+12, r1	; 0x0c
     69e:	1b 86       	std	Y+11, r1	; 0x0b
     6a0:	04 c0       	rjmp	.+8      	; 0x6aa <__divsf3+0x88>
     6a2:	32 30       	cpi	r19, 0x02	; 2
     6a4:	21 f4       	brne	.+8      	; 0x6ae <__divsf3+0x8c>
     6a6:	84 e0       	ldi	r24, 0x04	; 4
     6a8:	89 87       	std	Y+9, r24	; 0x09
     6aa:	b7 01       	movw	r22, r14
     6ac:	5f c0       	rjmp	.+190    	; 0x76c <__divsf3+0x14a>
     6ae:	2b 85       	ldd	r18, Y+11	; 0x0b
     6b0:	3c 85       	ldd	r19, Y+12	; 0x0c
     6b2:	8b 89       	ldd	r24, Y+19	; 0x13
     6b4:	9c 89       	ldd	r25, Y+20	; 0x14
     6b6:	28 1b       	sub	r18, r24
     6b8:	39 0b       	sbc	r19, r25
     6ba:	3c 87       	std	Y+12, r19	; 0x0c
     6bc:	2b 87       	std	Y+11, r18	; 0x0b
     6be:	ed 84       	ldd	r14, Y+13	; 0x0d
     6c0:	fe 84       	ldd	r15, Y+14	; 0x0e
     6c2:	0f 85       	ldd	r16, Y+15	; 0x0f
     6c4:	18 89       	ldd	r17, Y+16	; 0x10
     6c6:	ad 88       	ldd	r10, Y+21	; 0x15
     6c8:	be 88       	ldd	r11, Y+22	; 0x16
     6ca:	cf 88       	ldd	r12, Y+23	; 0x17
     6cc:	d8 8c       	ldd	r13, Y+24	; 0x18
     6ce:	ea 14       	cp	r14, r10
     6d0:	fb 04       	cpc	r15, r11
     6d2:	0c 05       	cpc	r16, r12
     6d4:	1d 05       	cpc	r17, r13
     6d6:	40 f4       	brcc	.+16     	; 0x6e8 <__divsf3+0xc6>
     6d8:	ee 0c       	add	r14, r14
     6da:	ff 1c       	adc	r15, r15
     6dc:	00 1f       	adc	r16, r16
     6de:	11 1f       	adc	r17, r17
     6e0:	21 50       	subi	r18, 0x01	; 1
     6e2:	30 40       	sbci	r19, 0x00	; 0
     6e4:	3c 87       	std	Y+12, r19	; 0x0c
     6e6:	2b 87       	std	Y+11, r18	; 0x0b
     6e8:	20 e0       	ldi	r18, 0x00	; 0
     6ea:	30 e0       	ldi	r19, 0x00	; 0
     6ec:	40 e0       	ldi	r20, 0x00	; 0
     6ee:	50 e0       	ldi	r21, 0x00	; 0
     6f0:	80 e0       	ldi	r24, 0x00	; 0
     6f2:	90 e0       	ldi	r25, 0x00	; 0
     6f4:	a0 e0       	ldi	r26, 0x00	; 0
     6f6:	b0 e4       	ldi	r27, 0x40	; 64
     6f8:	60 e0       	ldi	r22, 0x00	; 0
     6fa:	70 e0       	ldi	r23, 0x00	; 0
     6fc:	ea 14       	cp	r14, r10
     6fe:	fb 04       	cpc	r15, r11
     700:	0c 05       	cpc	r16, r12
     702:	1d 05       	cpc	r17, r13
     704:	40 f0       	brcs	.+16     	; 0x716 <__divsf3+0xf4>
     706:	28 2b       	or	r18, r24
     708:	39 2b       	or	r19, r25
     70a:	4a 2b       	or	r20, r26
     70c:	5b 2b       	or	r21, r27
     70e:	ea 18       	sub	r14, r10
     710:	fb 08       	sbc	r15, r11
     712:	0c 09       	sbc	r16, r12
     714:	1d 09       	sbc	r17, r13
     716:	b6 95       	lsr	r27
     718:	a7 95       	ror	r26
     71a:	97 95       	ror	r25
     71c:	87 95       	ror	r24
     71e:	ee 0c       	add	r14, r14
     720:	ff 1c       	adc	r15, r15
     722:	00 1f       	adc	r16, r16
     724:	11 1f       	adc	r17, r17
     726:	6f 5f       	subi	r22, 0xFF	; 255
     728:	7f 4f       	sbci	r23, 0xFF	; 255
     72a:	6f 31       	cpi	r22, 0x1F	; 31
     72c:	71 05       	cpc	r23, r1
     72e:	31 f7       	brne	.-52     	; 0x6fc <__divsf3+0xda>
     730:	da 01       	movw	r26, r20
     732:	c9 01       	movw	r24, r18
     734:	8f 77       	andi	r24, 0x7F	; 127
     736:	90 70       	andi	r25, 0x00	; 0
     738:	a0 70       	andi	r26, 0x00	; 0
     73a:	b0 70       	andi	r27, 0x00	; 0
     73c:	80 34       	cpi	r24, 0x40	; 64
     73e:	91 05       	cpc	r25, r1
     740:	a1 05       	cpc	r26, r1
     742:	b1 05       	cpc	r27, r1
     744:	61 f4       	brne	.+24     	; 0x75e <__divsf3+0x13c>
     746:	27 fd       	sbrc	r18, 7
     748:	0a c0       	rjmp	.+20     	; 0x75e <__divsf3+0x13c>
     74a:	e1 14       	cp	r14, r1
     74c:	f1 04       	cpc	r15, r1
     74e:	01 05       	cpc	r16, r1
     750:	11 05       	cpc	r17, r1
     752:	29 f0       	breq	.+10     	; 0x75e <__divsf3+0x13c>
     754:	20 5c       	subi	r18, 0xC0	; 192
     756:	3f 4f       	sbci	r19, 0xFF	; 255
     758:	4f 4f       	sbci	r20, 0xFF	; 255
     75a:	5f 4f       	sbci	r21, 0xFF	; 255
     75c:	20 78       	andi	r18, 0x80	; 128
     75e:	2d 87       	std	Y+13, r18	; 0x0d
     760:	3e 87       	std	Y+14, r19	; 0x0e
     762:	4f 87       	std	Y+15, r20	; 0x0f
     764:	58 8b       	std	Y+16, r21	; 0x10
     766:	be 01       	movw	r22, r28
     768:	67 5f       	subi	r22, 0xF7	; 247
     76a:	7f 4f       	sbci	r23, 0xFF	; 255
     76c:	cb 01       	movw	r24, r22
     76e:	0e 94 69 05 	call	0xad2	; 0xad2 <__pack_f>
     772:	68 96       	adiw	r28, 0x18	; 24
     774:	ea e0       	ldi	r30, 0x0A	; 10
     776:	0c 94 43 1d 	jmp	0x3a86	; 0x3a86 <__epilogue_restores__+0x10>

0000077a <__gtsf2>:
     77a:	a8 e1       	ldi	r26, 0x18	; 24
     77c:	b0 e0       	ldi	r27, 0x00	; 0
     77e:	e3 ec       	ldi	r30, 0xC3	; 195
     780:	f3 e0       	ldi	r31, 0x03	; 3
     782:	0c 94 2b 1d 	jmp	0x3a56	; 0x3a56 <__prologue_saves__+0x18>
     786:	69 83       	std	Y+1, r22	; 0x01
     788:	7a 83       	std	Y+2, r23	; 0x02
     78a:	8b 83       	std	Y+3, r24	; 0x03
     78c:	9c 83       	std	Y+4, r25	; 0x04
     78e:	2d 83       	std	Y+5, r18	; 0x05
     790:	3e 83       	std	Y+6, r19	; 0x06
     792:	4f 83       	std	Y+7, r20	; 0x07
     794:	58 87       	std	Y+8, r21	; 0x08
     796:	89 e0       	ldi	r24, 0x09	; 9
     798:	e8 2e       	mov	r14, r24
     79a:	f1 2c       	mov	r15, r1
     79c:	ec 0e       	add	r14, r28
     79e:	fd 1e       	adc	r15, r29
     7a0:	ce 01       	movw	r24, r28
     7a2:	01 96       	adiw	r24, 0x01	; 1
     7a4:	b7 01       	movw	r22, r14
     7a6:	0e 94 3e 06 	call	0xc7c	; 0xc7c <__unpack_f>
     7aa:	8e 01       	movw	r16, r28
     7ac:	0f 5e       	subi	r16, 0xEF	; 239
     7ae:	1f 4f       	sbci	r17, 0xFF	; 255
     7b0:	ce 01       	movw	r24, r28
     7b2:	05 96       	adiw	r24, 0x05	; 5
     7b4:	b8 01       	movw	r22, r16
     7b6:	0e 94 3e 06 	call	0xc7c	; 0xc7c <__unpack_f>
     7ba:	89 85       	ldd	r24, Y+9	; 0x09
     7bc:	82 30       	cpi	r24, 0x02	; 2
     7be:	40 f0       	brcs	.+16     	; 0x7d0 <__gtsf2+0x56>
     7c0:	89 89       	ldd	r24, Y+17	; 0x11
     7c2:	82 30       	cpi	r24, 0x02	; 2
     7c4:	28 f0       	brcs	.+10     	; 0x7d0 <__gtsf2+0x56>
     7c6:	c7 01       	movw	r24, r14
     7c8:	b8 01       	movw	r22, r16
     7ca:	0e 94 b6 06 	call	0xd6c	; 0xd6c <__fpcmp_parts_f>
     7ce:	01 c0       	rjmp	.+2      	; 0x7d2 <__gtsf2+0x58>
     7d0:	8f ef       	ldi	r24, 0xFF	; 255
     7d2:	68 96       	adiw	r28, 0x18	; 24
     7d4:	e6 e0       	ldi	r30, 0x06	; 6
     7d6:	0c 94 47 1d 	jmp	0x3a8e	; 0x3a8e <__epilogue_restores__+0x18>

000007da <__gesf2>:
     7da:	a8 e1       	ldi	r26, 0x18	; 24
     7dc:	b0 e0       	ldi	r27, 0x00	; 0
     7de:	e3 ef       	ldi	r30, 0xF3	; 243
     7e0:	f3 e0       	ldi	r31, 0x03	; 3
     7e2:	0c 94 2b 1d 	jmp	0x3a56	; 0x3a56 <__prologue_saves__+0x18>
     7e6:	69 83       	std	Y+1, r22	; 0x01
     7e8:	7a 83       	std	Y+2, r23	; 0x02
     7ea:	8b 83       	std	Y+3, r24	; 0x03
     7ec:	9c 83       	std	Y+4, r25	; 0x04
     7ee:	2d 83       	std	Y+5, r18	; 0x05
     7f0:	3e 83       	std	Y+6, r19	; 0x06
     7f2:	4f 83       	std	Y+7, r20	; 0x07
     7f4:	58 87       	std	Y+8, r21	; 0x08
     7f6:	89 e0       	ldi	r24, 0x09	; 9
     7f8:	e8 2e       	mov	r14, r24
     7fa:	f1 2c       	mov	r15, r1
     7fc:	ec 0e       	add	r14, r28
     7fe:	fd 1e       	adc	r15, r29
     800:	ce 01       	movw	r24, r28
     802:	01 96       	adiw	r24, 0x01	; 1
     804:	b7 01       	movw	r22, r14
     806:	0e 94 3e 06 	call	0xc7c	; 0xc7c <__unpack_f>
     80a:	8e 01       	movw	r16, r28
     80c:	0f 5e       	subi	r16, 0xEF	; 239
     80e:	1f 4f       	sbci	r17, 0xFF	; 255
     810:	ce 01       	movw	r24, r28
     812:	05 96       	adiw	r24, 0x05	; 5
     814:	b8 01       	movw	r22, r16
     816:	0e 94 3e 06 	call	0xc7c	; 0xc7c <__unpack_f>
     81a:	89 85       	ldd	r24, Y+9	; 0x09
     81c:	82 30       	cpi	r24, 0x02	; 2
     81e:	40 f0       	brcs	.+16     	; 0x830 <__gesf2+0x56>
     820:	89 89       	ldd	r24, Y+17	; 0x11
     822:	82 30       	cpi	r24, 0x02	; 2
     824:	28 f0       	brcs	.+10     	; 0x830 <__gesf2+0x56>
     826:	c7 01       	movw	r24, r14
     828:	b8 01       	movw	r22, r16
     82a:	0e 94 b6 06 	call	0xd6c	; 0xd6c <__fpcmp_parts_f>
     82e:	01 c0       	rjmp	.+2      	; 0x832 <__gesf2+0x58>
     830:	8f ef       	ldi	r24, 0xFF	; 255
     832:	68 96       	adiw	r28, 0x18	; 24
     834:	e6 e0       	ldi	r30, 0x06	; 6
     836:	0c 94 47 1d 	jmp	0x3a8e	; 0x3a8e <__epilogue_restores__+0x18>

0000083a <__ltsf2>:
     83a:	a8 e1       	ldi	r26, 0x18	; 24
     83c:	b0 e0       	ldi	r27, 0x00	; 0
     83e:	e3 e2       	ldi	r30, 0x23	; 35
     840:	f4 e0       	ldi	r31, 0x04	; 4
     842:	0c 94 2b 1d 	jmp	0x3a56	; 0x3a56 <__prologue_saves__+0x18>
     846:	69 83       	std	Y+1, r22	; 0x01
     848:	7a 83       	std	Y+2, r23	; 0x02
     84a:	8b 83       	std	Y+3, r24	; 0x03
     84c:	9c 83       	std	Y+4, r25	; 0x04
     84e:	2d 83       	std	Y+5, r18	; 0x05
     850:	3e 83       	std	Y+6, r19	; 0x06
     852:	4f 83       	std	Y+7, r20	; 0x07
     854:	58 87       	std	Y+8, r21	; 0x08
     856:	89 e0       	ldi	r24, 0x09	; 9
     858:	e8 2e       	mov	r14, r24
     85a:	f1 2c       	mov	r15, r1
     85c:	ec 0e       	add	r14, r28
     85e:	fd 1e       	adc	r15, r29
     860:	ce 01       	movw	r24, r28
     862:	01 96       	adiw	r24, 0x01	; 1
     864:	b7 01       	movw	r22, r14
     866:	0e 94 3e 06 	call	0xc7c	; 0xc7c <__unpack_f>
     86a:	8e 01       	movw	r16, r28
     86c:	0f 5e       	subi	r16, 0xEF	; 239
     86e:	1f 4f       	sbci	r17, 0xFF	; 255
     870:	ce 01       	movw	r24, r28
     872:	05 96       	adiw	r24, 0x05	; 5
     874:	b8 01       	movw	r22, r16
     876:	0e 94 3e 06 	call	0xc7c	; 0xc7c <__unpack_f>
     87a:	89 85       	ldd	r24, Y+9	; 0x09
     87c:	82 30       	cpi	r24, 0x02	; 2
     87e:	40 f0       	brcs	.+16     	; 0x890 <__stack+0x31>
     880:	89 89       	ldd	r24, Y+17	; 0x11
     882:	82 30       	cpi	r24, 0x02	; 2
     884:	28 f0       	brcs	.+10     	; 0x890 <__stack+0x31>
     886:	c7 01       	movw	r24, r14
     888:	b8 01       	movw	r22, r16
     88a:	0e 94 b6 06 	call	0xd6c	; 0xd6c <__fpcmp_parts_f>
     88e:	01 c0       	rjmp	.+2      	; 0x892 <__stack+0x33>
     890:	81 e0       	ldi	r24, 0x01	; 1
     892:	68 96       	adiw	r28, 0x18	; 24
     894:	e6 e0       	ldi	r30, 0x06	; 6
     896:	0c 94 47 1d 	jmp	0x3a8e	; 0x3a8e <__epilogue_restores__+0x18>

0000089a <__fixsfsi>:
     89a:	ac e0       	ldi	r26, 0x0C	; 12
     89c:	b0 e0       	ldi	r27, 0x00	; 0
     89e:	e3 e5       	ldi	r30, 0x53	; 83
     8a0:	f4 e0       	ldi	r31, 0x04	; 4
     8a2:	0c 94 2f 1d 	jmp	0x3a5e	; 0x3a5e <__prologue_saves__+0x20>
     8a6:	69 83       	std	Y+1, r22	; 0x01
     8a8:	7a 83       	std	Y+2, r23	; 0x02
     8aa:	8b 83       	std	Y+3, r24	; 0x03
     8ac:	9c 83       	std	Y+4, r25	; 0x04
     8ae:	ce 01       	movw	r24, r28
     8b0:	01 96       	adiw	r24, 0x01	; 1
     8b2:	be 01       	movw	r22, r28
     8b4:	6b 5f       	subi	r22, 0xFB	; 251
     8b6:	7f 4f       	sbci	r23, 0xFF	; 255
     8b8:	0e 94 3e 06 	call	0xc7c	; 0xc7c <__unpack_f>
     8bc:	8d 81       	ldd	r24, Y+5	; 0x05
     8be:	82 30       	cpi	r24, 0x02	; 2
     8c0:	61 f1       	breq	.+88     	; 0x91a <__fixsfsi+0x80>
     8c2:	82 30       	cpi	r24, 0x02	; 2
     8c4:	50 f1       	brcs	.+84     	; 0x91a <__fixsfsi+0x80>
     8c6:	84 30       	cpi	r24, 0x04	; 4
     8c8:	21 f4       	brne	.+8      	; 0x8d2 <__fixsfsi+0x38>
     8ca:	8e 81       	ldd	r24, Y+6	; 0x06
     8cc:	88 23       	and	r24, r24
     8ce:	51 f1       	breq	.+84     	; 0x924 <__fixsfsi+0x8a>
     8d0:	2e c0       	rjmp	.+92     	; 0x92e <__fixsfsi+0x94>
     8d2:	2f 81       	ldd	r18, Y+7	; 0x07
     8d4:	38 85       	ldd	r19, Y+8	; 0x08
     8d6:	37 fd       	sbrc	r19, 7
     8d8:	20 c0       	rjmp	.+64     	; 0x91a <__fixsfsi+0x80>
     8da:	6e 81       	ldd	r22, Y+6	; 0x06
     8dc:	2f 31       	cpi	r18, 0x1F	; 31
     8de:	31 05       	cpc	r19, r1
     8e0:	1c f0       	brlt	.+6      	; 0x8e8 <__fixsfsi+0x4e>
     8e2:	66 23       	and	r22, r22
     8e4:	f9 f0       	breq	.+62     	; 0x924 <__fixsfsi+0x8a>
     8e6:	23 c0       	rjmp	.+70     	; 0x92e <__fixsfsi+0x94>
     8e8:	8e e1       	ldi	r24, 0x1E	; 30
     8ea:	90 e0       	ldi	r25, 0x00	; 0
     8ec:	82 1b       	sub	r24, r18
     8ee:	93 0b       	sbc	r25, r19
     8f0:	29 85       	ldd	r18, Y+9	; 0x09
     8f2:	3a 85       	ldd	r19, Y+10	; 0x0a
     8f4:	4b 85       	ldd	r20, Y+11	; 0x0b
     8f6:	5c 85       	ldd	r21, Y+12	; 0x0c
     8f8:	04 c0       	rjmp	.+8      	; 0x902 <__fixsfsi+0x68>
     8fa:	56 95       	lsr	r21
     8fc:	47 95       	ror	r20
     8fe:	37 95       	ror	r19
     900:	27 95       	ror	r18
     902:	8a 95       	dec	r24
     904:	d2 f7       	brpl	.-12     	; 0x8fa <__fixsfsi+0x60>
     906:	66 23       	and	r22, r22
     908:	b1 f0       	breq	.+44     	; 0x936 <__fixsfsi+0x9c>
     90a:	50 95       	com	r21
     90c:	40 95       	com	r20
     90e:	30 95       	com	r19
     910:	21 95       	neg	r18
     912:	3f 4f       	sbci	r19, 0xFF	; 255
     914:	4f 4f       	sbci	r20, 0xFF	; 255
     916:	5f 4f       	sbci	r21, 0xFF	; 255
     918:	0e c0       	rjmp	.+28     	; 0x936 <__fixsfsi+0x9c>
     91a:	20 e0       	ldi	r18, 0x00	; 0
     91c:	30 e0       	ldi	r19, 0x00	; 0
     91e:	40 e0       	ldi	r20, 0x00	; 0
     920:	50 e0       	ldi	r21, 0x00	; 0
     922:	09 c0       	rjmp	.+18     	; 0x936 <__fixsfsi+0x9c>
     924:	2f ef       	ldi	r18, 0xFF	; 255
     926:	3f ef       	ldi	r19, 0xFF	; 255
     928:	4f ef       	ldi	r20, 0xFF	; 255
     92a:	5f e7       	ldi	r21, 0x7F	; 127
     92c:	04 c0       	rjmp	.+8      	; 0x936 <__fixsfsi+0x9c>
     92e:	20 e0       	ldi	r18, 0x00	; 0
     930:	30 e0       	ldi	r19, 0x00	; 0
     932:	40 e0       	ldi	r20, 0x00	; 0
     934:	50 e8       	ldi	r21, 0x80	; 128
     936:	b9 01       	movw	r22, r18
     938:	ca 01       	movw	r24, r20
     93a:	2c 96       	adiw	r28, 0x0c	; 12
     93c:	e2 e0       	ldi	r30, 0x02	; 2
     93e:	0c 94 4b 1d 	jmp	0x3a96	; 0x3a96 <__epilogue_restores__+0x20>

00000942 <__floatunsisf>:
     942:	a8 e0       	ldi	r26, 0x08	; 8
     944:	b0 e0       	ldi	r27, 0x00	; 0
     946:	e7 ea       	ldi	r30, 0xA7	; 167
     948:	f4 e0       	ldi	r31, 0x04	; 4
     94a:	0c 94 27 1d 	jmp	0x3a4e	; 0x3a4e <__prologue_saves__+0x10>
     94e:	7b 01       	movw	r14, r22
     950:	8c 01       	movw	r16, r24
     952:	61 15       	cp	r22, r1
     954:	71 05       	cpc	r23, r1
     956:	81 05       	cpc	r24, r1
     958:	91 05       	cpc	r25, r1
     95a:	19 f4       	brne	.+6      	; 0x962 <__floatunsisf+0x20>
     95c:	82 e0       	ldi	r24, 0x02	; 2
     95e:	89 83       	std	Y+1, r24	; 0x01
     960:	60 c0       	rjmp	.+192    	; 0xa22 <__floatunsisf+0xe0>
     962:	83 e0       	ldi	r24, 0x03	; 3
     964:	89 83       	std	Y+1, r24	; 0x01
     966:	8e e1       	ldi	r24, 0x1E	; 30
     968:	c8 2e       	mov	r12, r24
     96a:	d1 2c       	mov	r13, r1
     96c:	dc 82       	std	Y+4, r13	; 0x04
     96e:	cb 82       	std	Y+3, r12	; 0x03
     970:	ed 82       	std	Y+5, r14	; 0x05
     972:	fe 82       	std	Y+6, r15	; 0x06
     974:	0f 83       	std	Y+7, r16	; 0x07
     976:	18 87       	std	Y+8, r17	; 0x08
     978:	c8 01       	movw	r24, r16
     97a:	b7 01       	movw	r22, r14
     97c:	0e 94 1a 05 	call	0xa34	; 0xa34 <__clzsi2>
     980:	fc 01       	movw	r30, r24
     982:	31 97       	sbiw	r30, 0x01	; 1
     984:	f7 ff       	sbrs	r31, 7
     986:	3b c0       	rjmp	.+118    	; 0x9fe <__floatunsisf+0xbc>
     988:	22 27       	eor	r18, r18
     98a:	33 27       	eor	r19, r19
     98c:	2e 1b       	sub	r18, r30
     98e:	3f 0b       	sbc	r19, r31
     990:	57 01       	movw	r10, r14
     992:	68 01       	movw	r12, r16
     994:	02 2e       	mov	r0, r18
     996:	04 c0       	rjmp	.+8      	; 0x9a0 <__floatunsisf+0x5e>
     998:	d6 94       	lsr	r13
     99a:	c7 94       	ror	r12
     99c:	b7 94       	ror	r11
     99e:	a7 94       	ror	r10
     9a0:	0a 94       	dec	r0
     9a2:	d2 f7       	brpl	.-12     	; 0x998 <__floatunsisf+0x56>
     9a4:	40 e0       	ldi	r20, 0x00	; 0
     9a6:	50 e0       	ldi	r21, 0x00	; 0
     9a8:	60 e0       	ldi	r22, 0x00	; 0
     9aa:	70 e0       	ldi	r23, 0x00	; 0
     9ac:	81 e0       	ldi	r24, 0x01	; 1
     9ae:	90 e0       	ldi	r25, 0x00	; 0
     9b0:	a0 e0       	ldi	r26, 0x00	; 0
     9b2:	b0 e0       	ldi	r27, 0x00	; 0
     9b4:	04 c0       	rjmp	.+8      	; 0x9be <__floatunsisf+0x7c>
     9b6:	88 0f       	add	r24, r24
     9b8:	99 1f       	adc	r25, r25
     9ba:	aa 1f       	adc	r26, r26
     9bc:	bb 1f       	adc	r27, r27
     9be:	2a 95       	dec	r18
     9c0:	d2 f7       	brpl	.-12     	; 0x9b6 <__floatunsisf+0x74>
     9c2:	01 97       	sbiw	r24, 0x01	; 1
     9c4:	a1 09       	sbc	r26, r1
     9c6:	b1 09       	sbc	r27, r1
     9c8:	8e 21       	and	r24, r14
     9ca:	9f 21       	and	r25, r15
     9cc:	a0 23       	and	r26, r16
     9ce:	b1 23       	and	r27, r17
     9d0:	00 97       	sbiw	r24, 0x00	; 0
     9d2:	a1 05       	cpc	r26, r1
     9d4:	b1 05       	cpc	r27, r1
     9d6:	21 f0       	breq	.+8      	; 0x9e0 <__floatunsisf+0x9e>
     9d8:	41 e0       	ldi	r20, 0x01	; 1
     9da:	50 e0       	ldi	r21, 0x00	; 0
     9dc:	60 e0       	ldi	r22, 0x00	; 0
     9de:	70 e0       	ldi	r23, 0x00	; 0
     9e0:	4a 29       	or	r20, r10
     9e2:	5b 29       	or	r21, r11
     9e4:	6c 29       	or	r22, r12
     9e6:	7d 29       	or	r23, r13
     9e8:	4d 83       	std	Y+5, r20	; 0x05
     9ea:	5e 83       	std	Y+6, r21	; 0x06
     9ec:	6f 83       	std	Y+7, r22	; 0x07
     9ee:	78 87       	std	Y+8, r23	; 0x08
     9f0:	8e e1       	ldi	r24, 0x1E	; 30
     9f2:	90 e0       	ldi	r25, 0x00	; 0
     9f4:	8e 1b       	sub	r24, r30
     9f6:	9f 0b       	sbc	r25, r31
     9f8:	9c 83       	std	Y+4, r25	; 0x04
     9fa:	8b 83       	std	Y+3, r24	; 0x03
     9fc:	12 c0       	rjmp	.+36     	; 0xa22 <__floatunsisf+0xe0>
     9fe:	30 97       	sbiw	r30, 0x00	; 0
     a00:	81 f0       	breq	.+32     	; 0xa22 <__floatunsisf+0xe0>
     a02:	0e 2e       	mov	r0, r30
     a04:	04 c0       	rjmp	.+8      	; 0xa0e <__floatunsisf+0xcc>
     a06:	ee 0c       	add	r14, r14
     a08:	ff 1c       	adc	r15, r15
     a0a:	00 1f       	adc	r16, r16
     a0c:	11 1f       	adc	r17, r17
     a0e:	0a 94       	dec	r0
     a10:	d2 f7       	brpl	.-12     	; 0xa06 <__floatunsisf+0xc4>
     a12:	ed 82       	std	Y+5, r14	; 0x05
     a14:	fe 82       	std	Y+6, r15	; 0x06
     a16:	0f 83       	std	Y+7, r16	; 0x07
     a18:	18 87       	std	Y+8, r17	; 0x08
     a1a:	ce 1a       	sub	r12, r30
     a1c:	df 0a       	sbc	r13, r31
     a1e:	dc 82       	std	Y+4, r13	; 0x04
     a20:	cb 82       	std	Y+3, r12	; 0x03
     a22:	1a 82       	std	Y+2, r1	; 0x02
     a24:	ce 01       	movw	r24, r28
     a26:	01 96       	adiw	r24, 0x01	; 1
     a28:	0e 94 69 05 	call	0xad2	; 0xad2 <__pack_f>
     a2c:	28 96       	adiw	r28, 0x08	; 8
     a2e:	ea e0       	ldi	r30, 0x0A	; 10
     a30:	0c 94 43 1d 	jmp	0x3a86	; 0x3a86 <__epilogue_restores__+0x10>

00000a34 <__clzsi2>:
     a34:	ef 92       	push	r14
     a36:	ff 92       	push	r15
     a38:	0f 93       	push	r16
     a3a:	1f 93       	push	r17
     a3c:	7b 01       	movw	r14, r22
     a3e:	8c 01       	movw	r16, r24
     a40:	80 e0       	ldi	r24, 0x00	; 0
     a42:	e8 16       	cp	r14, r24
     a44:	80 e0       	ldi	r24, 0x00	; 0
     a46:	f8 06       	cpc	r15, r24
     a48:	81 e0       	ldi	r24, 0x01	; 1
     a4a:	08 07       	cpc	r16, r24
     a4c:	80 e0       	ldi	r24, 0x00	; 0
     a4e:	18 07       	cpc	r17, r24
     a50:	88 f4       	brcc	.+34     	; 0xa74 <__clzsi2+0x40>
     a52:	8f ef       	ldi	r24, 0xFF	; 255
     a54:	e8 16       	cp	r14, r24
     a56:	f1 04       	cpc	r15, r1
     a58:	01 05       	cpc	r16, r1
     a5a:	11 05       	cpc	r17, r1
     a5c:	31 f0       	breq	.+12     	; 0xa6a <__clzsi2+0x36>
     a5e:	28 f0       	brcs	.+10     	; 0xa6a <__clzsi2+0x36>
     a60:	88 e0       	ldi	r24, 0x08	; 8
     a62:	90 e0       	ldi	r25, 0x00	; 0
     a64:	a0 e0       	ldi	r26, 0x00	; 0
     a66:	b0 e0       	ldi	r27, 0x00	; 0
     a68:	17 c0       	rjmp	.+46     	; 0xa98 <__clzsi2+0x64>
     a6a:	80 e0       	ldi	r24, 0x00	; 0
     a6c:	90 e0       	ldi	r25, 0x00	; 0
     a6e:	a0 e0       	ldi	r26, 0x00	; 0
     a70:	b0 e0       	ldi	r27, 0x00	; 0
     a72:	12 c0       	rjmp	.+36     	; 0xa98 <__clzsi2+0x64>
     a74:	80 e0       	ldi	r24, 0x00	; 0
     a76:	e8 16       	cp	r14, r24
     a78:	80 e0       	ldi	r24, 0x00	; 0
     a7a:	f8 06       	cpc	r15, r24
     a7c:	80 e0       	ldi	r24, 0x00	; 0
     a7e:	08 07       	cpc	r16, r24
     a80:	81 e0       	ldi	r24, 0x01	; 1
     a82:	18 07       	cpc	r17, r24
     a84:	28 f0       	brcs	.+10     	; 0xa90 <__clzsi2+0x5c>
     a86:	88 e1       	ldi	r24, 0x18	; 24
     a88:	90 e0       	ldi	r25, 0x00	; 0
     a8a:	a0 e0       	ldi	r26, 0x00	; 0
     a8c:	b0 e0       	ldi	r27, 0x00	; 0
     a8e:	04 c0       	rjmp	.+8      	; 0xa98 <__clzsi2+0x64>
     a90:	80 e1       	ldi	r24, 0x10	; 16
     a92:	90 e0       	ldi	r25, 0x00	; 0
     a94:	a0 e0       	ldi	r26, 0x00	; 0
     a96:	b0 e0       	ldi	r27, 0x00	; 0
     a98:	20 e2       	ldi	r18, 0x20	; 32
     a9a:	30 e0       	ldi	r19, 0x00	; 0
     a9c:	40 e0       	ldi	r20, 0x00	; 0
     a9e:	50 e0       	ldi	r21, 0x00	; 0
     aa0:	28 1b       	sub	r18, r24
     aa2:	39 0b       	sbc	r19, r25
     aa4:	4a 0b       	sbc	r20, r26
     aa6:	5b 0b       	sbc	r21, r27
     aa8:	04 c0       	rjmp	.+8      	; 0xab2 <__clzsi2+0x7e>
     aaa:	16 95       	lsr	r17
     aac:	07 95       	ror	r16
     aae:	f7 94       	ror	r15
     ab0:	e7 94       	ror	r14
     ab2:	8a 95       	dec	r24
     ab4:	d2 f7       	brpl	.-12     	; 0xaaa <__clzsi2+0x76>
     ab6:	f7 01       	movw	r30, r14
     ab8:	e1 57       	subi	r30, 0x71	; 113
     aba:	ff 4f       	sbci	r31, 0xFF	; 255
     abc:	80 81       	ld	r24, Z
     abe:	28 1b       	sub	r18, r24
     ac0:	31 09       	sbc	r19, r1
     ac2:	41 09       	sbc	r20, r1
     ac4:	51 09       	sbc	r21, r1
     ac6:	c9 01       	movw	r24, r18
     ac8:	1f 91       	pop	r17
     aca:	0f 91       	pop	r16
     acc:	ff 90       	pop	r15
     ace:	ef 90       	pop	r14
     ad0:	08 95       	ret

00000ad2 <__pack_f>:
     ad2:	df 92       	push	r13
     ad4:	ef 92       	push	r14
     ad6:	ff 92       	push	r15
     ad8:	0f 93       	push	r16
     ada:	1f 93       	push	r17
     adc:	fc 01       	movw	r30, r24
     ade:	e4 80       	ldd	r14, Z+4	; 0x04
     ae0:	f5 80       	ldd	r15, Z+5	; 0x05
     ae2:	06 81       	ldd	r16, Z+6	; 0x06
     ae4:	17 81       	ldd	r17, Z+7	; 0x07
     ae6:	d1 80       	ldd	r13, Z+1	; 0x01
     ae8:	80 81       	ld	r24, Z
     aea:	82 30       	cpi	r24, 0x02	; 2
     aec:	48 f4       	brcc	.+18     	; 0xb00 <__pack_f+0x2e>
     aee:	80 e0       	ldi	r24, 0x00	; 0
     af0:	90 e0       	ldi	r25, 0x00	; 0
     af2:	a0 e1       	ldi	r26, 0x10	; 16
     af4:	b0 e0       	ldi	r27, 0x00	; 0
     af6:	e8 2a       	or	r14, r24
     af8:	f9 2a       	or	r15, r25
     afa:	0a 2b       	or	r16, r26
     afc:	1b 2b       	or	r17, r27
     afe:	a5 c0       	rjmp	.+330    	; 0xc4a <__pack_f+0x178>
     b00:	84 30       	cpi	r24, 0x04	; 4
     b02:	09 f4       	brne	.+2      	; 0xb06 <__pack_f+0x34>
     b04:	9f c0       	rjmp	.+318    	; 0xc44 <__pack_f+0x172>
     b06:	82 30       	cpi	r24, 0x02	; 2
     b08:	21 f4       	brne	.+8      	; 0xb12 <__pack_f+0x40>
     b0a:	ee 24       	eor	r14, r14
     b0c:	ff 24       	eor	r15, r15
     b0e:	87 01       	movw	r16, r14
     b10:	05 c0       	rjmp	.+10     	; 0xb1c <__pack_f+0x4a>
     b12:	e1 14       	cp	r14, r1
     b14:	f1 04       	cpc	r15, r1
     b16:	01 05       	cpc	r16, r1
     b18:	11 05       	cpc	r17, r1
     b1a:	19 f4       	brne	.+6      	; 0xb22 <__pack_f+0x50>
     b1c:	e0 e0       	ldi	r30, 0x00	; 0
     b1e:	f0 e0       	ldi	r31, 0x00	; 0
     b20:	96 c0       	rjmp	.+300    	; 0xc4e <__pack_f+0x17c>
     b22:	62 81       	ldd	r22, Z+2	; 0x02
     b24:	73 81       	ldd	r23, Z+3	; 0x03
     b26:	9f ef       	ldi	r25, 0xFF	; 255
     b28:	62 38       	cpi	r22, 0x82	; 130
     b2a:	79 07       	cpc	r23, r25
     b2c:	0c f0       	brlt	.+2      	; 0xb30 <__pack_f+0x5e>
     b2e:	5b c0       	rjmp	.+182    	; 0xbe6 <__pack_f+0x114>
     b30:	22 e8       	ldi	r18, 0x82	; 130
     b32:	3f ef       	ldi	r19, 0xFF	; 255
     b34:	26 1b       	sub	r18, r22
     b36:	37 0b       	sbc	r19, r23
     b38:	2a 31       	cpi	r18, 0x1A	; 26
     b3a:	31 05       	cpc	r19, r1
     b3c:	2c f0       	brlt	.+10     	; 0xb48 <__pack_f+0x76>
     b3e:	20 e0       	ldi	r18, 0x00	; 0
     b40:	30 e0       	ldi	r19, 0x00	; 0
     b42:	40 e0       	ldi	r20, 0x00	; 0
     b44:	50 e0       	ldi	r21, 0x00	; 0
     b46:	2a c0       	rjmp	.+84     	; 0xb9c <__pack_f+0xca>
     b48:	b8 01       	movw	r22, r16
     b4a:	a7 01       	movw	r20, r14
     b4c:	02 2e       	mov	r0, r18
     b4e:	04 c0       	rjmp	.+8      	; 0xb58 <__pack_f+0x86>
     b50:	76 95       	lsr	r23
     b52:	67 95       	ror	r22
     b54:	57 95       	ror	r21
     b56:	47 95       	ror	r20
     b58:	0a 94       	dec	r0
     b5a:	d2 f7       	brpl	.-12     	; 0xb50 <__pack_f+0x7e>
     b5c:	81 e0       	ldi	r24, 0x01	; 1
     b5e:	90 e0       	ldi	r25, 0x00	; 0
     b60:	a0 e0       	ldi	r26, 0x00	; 0
     b62:	b0 e0       	ldi	r27, 0x00	; 0
     b64:	04 c0       	rjmp	.+8      	; 0xb6e <__pack_f+0x9c>
     b66:	88 0f       	add	r24, r24
     b68:	99 1f       	adc	r25, r25
     b6a:	aa 1f       	adc	r26, r26
     b6c:	bb 1f       	adc	r27, r27
     b6e:	2a 95       	dec	r18
     b70:	d2 f7       	brpl	.-12     	; 0xb66 <__pack_f+0x94>
     b72:	01 97       	sbiw	r24, 0x01	; 1
     b74:	a1 09       	sbc	r26, r1
     b76:	b1 09       	sbc	r27, r1
     b78:	8e 21       	and	r24, r14
     b7a:	9f 21       	and	r25, r15
     b7c:	a0 23       	and	r26, r16
     b7e:	b1 23       	and	r27, r17
     b80:	00 97       	sbiw	r24, 0x00	; 0
     b82:	a1 05       	cpc	r26, r1
     b84:	b1 05       	cpc	r27, r1
     b86:	21 f0       	breq	.+8      	; 0xb90 <__pack_f+0xbe>
     b88:	81 e0       	ldi	r24, 0x01	; 1
     b8a:	90 e0       	ldi	r25, 0x00	; 0
     b8c:	a0 e0       	ldi	r26, 0x00	; 0
     b8e:	b0 e0       	ldi	r27, 0x00	; 0
     b90:	9a 01       	movw	r18, r20
     b92:	ab 01       	movw	r20, r22
     b94:	28 2b       	or	r18, r24
     b96:	39 2b       	or	r19, r25
     b98:	4a 2b       	or	r20, r26
     b9a:	5b 2b       	or	r21, r27
     b9c:	da 01       	movw	r26, r20
     b9e:	c9 01       	movw	r24, r18
     ba0:	8f 77       	andi	r24, 0x7F	; 127
     ba2:	90 70       	andi	r25, 0x00	; 0
     ba4:	a0 70       	andi	r26, 0x00	; 0
     ba6:	b0 70       	andi	r27, 0x00	; 0
     ba8:	80 34       	cpi	r24, 0x40	; 64
     baa:	91 05       	cpc	r25, r1
     bac:	a1 05       	cpc	r26, r1
     bae:	b1 05       	cpc	r27, r1
     bb0:	39 f4       	brne	.+14     	; 0xbc0 <__pack_f+0xee>
     bb2:	27 ff       	sbrs	r18, 7
     bb4:	09 c0       	rjmp	.+18     	; 0xbc8 <__pack_f+0xf6>
     bb6:	20 5c       	subi	r18, 0xC0	; 192
     bb8:	3f 4f       	sbci	r19, 0xFF	; 255
     bba:	4f 4f       	sbci	r20, 0xFF	; 255
     bbc:	5f 4f       	sbci	r21, 0xFF	; 255
     bbe:	04 c0       	rjmp	.+8      	; 0xbc8 <__pack_f+0xf6>
     bc0:	21 5c       	subi	r18, 0xC1	; 193
     bc2:	3f 4f       	sbci	r19, 0xFF	; 255
     bc4:	4f 4f       	sbci	r20, 0xFF	; 255
     bc6:	5f 4f       	sbci	r21, 0xFF	; 255
     bc8:	e0 e0       	ldi	r30, 0x00	; 0
     bca:	f0 e0       	ldi	r31, 0x00	; 0
     bcc:	20 30       	cpi	r18, 0x00	; 0
     bce:	a0 e0       	ldi	r26, 0x00	; 0
     bd0:	3a 07       	cpc	r19, r26
     bd2:	a0 e0       	ldi	r26, 0x00	; 0
     bd4:	4a 07       	cpc	r20, r26
     bd6:	a0 e4       	ldi	r26, 0x40	; 64
     bd8:	5a 07       	cpc	r21, r26
     bda:	10 f0       	brcs	.+4      	; 0xbe0 <__pack_f+0x10e>
     bdc:	e1 e0       	ldi	r30, 0x01	; 1
     bde:	f0 e0       	ldi	r31, 0x00	; 0
     be0:	79 01       	movw	r14, r18
     be2:	8a 01       	movw	r16, r20
     be4:	27 c0       	rjmp	.+78     	; 0xc34 <__pack_f+0x162>
     be6:	60 38       	cpi	r22, 0x80	; 128
     be8:	71 05       	cpc	r23, r1
     bea:	64 f5       	brge	.+88     	; 0xc44 <__pack_f+0x172>
     bec:	fb 01       	movw	r30, r22
     bee:	e1 58       	subi	r30, 0x81	; 129
     bf0:	ff 4f       	sbci	r31, 0xFF	; 255
     bf2:	d8 01       	movw	r26, r16
     bf4:	c7 01       	movw	r24, r14
     bf6:	8f 77       	andi	r24, 0x7F	; 127
     bf8:	90 70       	andi	r25, 0x00	; 0
     bfa:	a0 70       	andi	r26, 0x00	; 0
     bfc:	b0 70       	andi	r27, 0x00	; 0
     bfe:	80 34       	cpi	r24, 0x40	; 64
     c00:	91 05       	cpc	r25, r1
     c02:	a1 05       	cpc	r26, r1
     c04:	b1 05       	cpc	r27, r1
     c06:	39 f4       	brne	.+14     	; 0xc16 <__pack_f+0x144>
     c08:	e7 fe       	sbrs	r14, 7
     c0a:	0d c0       	rjmp	.+26     	; 0xc26 <__pack_f+0x154>
     c0c:	80 e4       	ldi	r24, 0x40	; 64
     c0e:	90 e0       	ldi	r25, 0x00	; 0
     c10:	a0 e0       	ldi	r26, 0x00	; 0
     c12:	b0 e0       	ldi	r27, 0x00	; 0
     c14:	04 c0       	rjmp	.+8      	; 0xc1e <__pack_f+0x14c>
     c16:	8f e3       	ldi	r24, 0x3F	; 63
     c18:	90 e0       	ldi	r25, 0x00	; 0
     c1a:	a0 e0       	ldi	r26, 0x00	; 0
     c1c:	b0 e0       	ldi	r27, 0x00	; 0
     c1e:	e8 0e       	add	r14, r24
     c20:	f9 1e       	adc	r15, r25
     c22:	0a 1f       	adc	r16, r26
     c24:	1b 1f       	adc	r17, r27
     c26:	17 ff       	sbrs	r17, 7
     c28:	05 c0       	rjmp	.+10     	; 0xc34 <__pack_f+0x162>
     c2a:	16 95       	lsr	r17
     c2c:	07 95       	ror	r16
     c2e:	f7 94       	ror	r15
     c30:	e7 94       	ror	r14
     c32:	31 96       	adiw	r30, 0x01	; 1
     c34:	87 e0       	ldi	r24, 0x07	; 7
     c36:	16 95       	lsr	r17
     c38:	07 95       	ror	r16
     c3a:	f7 94       	ror	r15
     c3c:	e7 94       	ror	r14
     c3e:	8a 95       	dec	r24
     c40:	d1 f7       	brne	.-12     	; 0xc36 <__pack_f+0x164>
     c42:	05 c0       	rjmp	.+10     	; 0xc4e <__pack_f+0x17c>
     c44:	ee 24       	eor	r14, r14
     c46:	ff 24       	eor	r15, r15
     c48:	87 01       	movw	r16, r14
     c4a:	ef ef       	ldi	r30, 0xFF	; 255
     c4c:	f0 e0       	ldi	r31, 0x00	; 0
     c4e:	6e 2f       	mov	r22, r30
     c50:	67 95       	ror	r22
     c52:	66 27       	eor	r22, r22
     c54:	67 95       	ror	r22
     c56:	90 2f       	mov	r25, r16
     c58:	9f 77       	andi	r25, 0x7F	; 127
     c5a:	d7 94       	ror	r13
     c5c:	dd 24       	eor	r13, r13
     c5e:	d7 94       	ror	r13
     c60:	8e 2f       	mov	r24, r30
     c62:	86 95       	lsr	r24
     c64:	49 2f       	mov	r20, r25
     c66:	46 2b       	or	r20, r22
     c68:	58 2f       	mov	r21, r24
     c6a:	5d 29       	or	r21, r13
     c6c:	b7 01       	movw	r22, r14
     c6e:	ca 01       	movw	r24, r20
     c70:	1f 91       	pop	r17
     c72:	0f 91       	pop	r16
     c74:	ff 90       	pop	r15
     c76:	ef 90       	pop	r14
     c78:	df 90       	pop	r13
     c7a:	08 95       	ret

00000c7c <__unpack_f>:
     c7c:	fc 01       	movw	r30, r24
     c7e:	db 01       	movw	r26, r22
     c80:	40 81       	ld	r20, Z
     c82:	51 81       	ldd	r21, Z+1	; 0x01
     c84:	22 81       	ldd	r18, Z+2	; 0x02
     c86:	62 2f       	mov	r22, r18
     c88:	6f 77       	andi	r22, 0x7F	; 127
     c8a:	70 e0       	ldi	r23, 0x00	; 0
     c8c:	22 1f       	adc	r18, r18
     c8e:	22 27       	eor	r18, r18
     c90:	22 1f       	adc	r18, r18
     c92:	93 81       	ldd	r25, Z+3	; 0x03
     c94:	89 2f       	mov	r24, r25
     c96:	88 0f       	add	r24, r24
     c98:	82 2b       	or	r24, r18
     c9a:	28 2f       	mov	r18, r24
     c9c:	30 e0       	ldi	r19, 0x00	; 0
     c9e:	99 1f       	adc	r25, r25
     ca0:	99 27       	eor	r25, r25
     ca2:	99 1f       	adc	r25, r25
     ca4:	11 96       	adiw	r26, 0x01	; 1
     ca6:	9c 93       	st	X, r25
     ca8:	11 97       	sbiw	r26, 0x01	; 1
     caa:	21 15       	cp	r18, r1
     cac:	31 05       	cpc	r19, r1
     cae:	a9 f5       	brne	.+106    	; 0xd1a <__unpack_f+0x9e>
     cb0:	41 15       	cp	r20, r1
     cb2:	51 05       	cpc	r21, r1
     cb4:	61 05       	cpc	r22, r1
     cb6:	71 05       	cpc	r23, r1
     cb8:	11 f4       	brne	.+4      	; 0xcbe <__unpack_f+0x42>
     cba:	82 e0       	ldi	r24, 0x02	; 2
     cbc:	37 c0       	rjmp	.+110    	; 0xd2c <__unpack_f+0xb0>
     cbe:	82 e8       	ldi	r24, 0x82	; 130
     cc0:	9f ef       	ldi	r25, 0xFF	; 255
     cc2:	13 96       	adiw	r26, 0x03	; 3
     cc4:	9c 93       	st	X, r25
     cc6:	8e 93       	st	-X, r24
     cc8:	12 97       	sbiw	r26, 0x02	; 2
     cca:	9a 01       	movw	r18, r20
     ccc:	ab 01       	movw	r20, r22
     cce:	67 e0       	ldi	r22, 0x07	; 7
     cd0:	22 0f       	add	r18, r18
     cd2:	33 1f       	adc	r19, r19
     cd4:	44 1f       	adc	r20, r20
     cd6:	55 1f       	adc	r21, r21
     cd8:	6a 95       	dec	r22
     cda:	d1 f7       	brne	.-12     	; 0xcd0 <__unpack_f+0x54>
     cdc:	83 e0       	ldi	r24, 0x03	; 3
     cde:	8c 93       	st	X, r24
     ce0:	0d c0       	rjmp	.+26     	; 0xcfc <__unpack_f+0x80>
     ce2:	22 0f       	add	r18, r18
     ce4:	33 1f       	adc	r19, r19
     ce6:	44 1f       	adc	r20, r20
     ce8:	55 1f       	adc	r21, r21
     cea:	12 96       	adiw	r26, 0x02	; 2
     cec:	8d 91       	ld	r24, X+
     cee:	9c 91       	ld	r25, X
     cf0:	13 97       	sbiw	r26, 0x03	; 3
     cf2:	01 97       	sbiw	r24, 0x01	; 1
     cf4:	13 96       	adiw	r26, 0x03	; 3
     cf6:	9c 93       	st	X, r25
     cf8:	8e 93       	st	-X, r24
     cfa:	12 97       	sbiw	r26, 0x02	; 2
     cfc:	20 30       	cpi	r18, 0x00	; 0
     cfe:	80 e0       	ldi	r24, 0x00	; 0
     d00:	38 07       	cpc	r19, r24
     d02:	80 e0       	ldi	r24, 0x00	; 0
     d04:	48 07       	cpc	r20, r24
     d06:	80 e4       	ldi	r24, 0x40	; 64
     d08:	58 07       	cpc	r21, r24
     d0a:	58 f3       	brcs	.-42     	; 0xce2 <__unpack_f+0x66>
     d0c:	14 96       	adiw	r26, 0x04	; 4
     d0e:	2d 93       	st	X+, r18
     d10:	3d 93       	st	X+, r19
     d12:	4d 93       	st	X+, r20
     d14:	5c 93       	st	X, r21
     d16:	17 97       	sbiw	r26, 0x07	; 7
     d18:	08 95       	ret
     d1a:	2f 3f       	cpi	r18, 0xFF	; 255
     d1c:	31 05       	cpc	r19, r1
     d1e:	79 f4       	brne	.+30     	; 0xd3e <__unpack_f+0xc2>
     d20:	41 15       	cp	r20, r1
     d22:	51 05       	cpc	r21, r1
     d24:	61 05       	cpc	r22, r1
     d26:	71 05       	cpc	r23, r1
     d28:	19 f4       	brne	.+6      	; 0xd30 <__unpack_f+0xb4>
     d2a:	84 e0       	ldi	r24, 0x04	; 4
     d2c:	8c 93       	st	X, r24
     d2e:	08 95       	ret
     d30:	64 ff       	sbrs	r22, 4
     d32:	03 c0       	rjmp	.+6      	; 0xd3a <__unpack_f+0xbe>
     d34:	81 e0       	ldi	r24, 0x01	; 1
     d36:	8c 93       	st	X, r24
     d38:	12 c0       	rjmp	.+36     	; 0xd5e <__unpack_f+0xe2>
     d3a:	1c 92       	st	X, r1
     d3c:	10 c0       	rjmp	.+32     	; 0xd5e <__unpack_f+0xe2>
     d3e:	2f 57       	subi	r18, 0x7F	; 127
     d40:	30 40       	sbci	r19, 0x00	; 0
     d42:	13 96       	adiw	r26, 0x03	; 3
     d44:	3c 93       	st	X, r19
     d46:	2e 93       	st	-X, r18
     d48:	12 97       	sbiw	r26, 0x02	; 2
     d4a:	83 e0       	ldi	r24, 0x03	; 3
     d4c:	8c 93       	st	X, r24
     d4e:	87 e0       	ldi	r24, 0x07	; 7
     d50:	44 0f       	add	r20, r20
     d52:	55 1f       	adc	r21, r21
     d54:	66 1f       	adc	r22, r22
     d56:	77 1f       	adc	r23, r23
     d58:	8a 95       	dec	r24
     d5a:	d1 f7       	brne	.-12     	; 0xd50 <__unpack_f+0xd4>
     d5c:	70 64       	ori	r23, 0x40	; 64
     d5e:	14 96       	adiw	r26, 0x04	; 4
     d60:	4d 93       	st	X+, r20
     d62:	5d 93       	st	X+, r21
     d64:	6d 93       	st	X+, r22
     d66:	7c 93       	st	X, r23
     d68:	17 97       	sbiw	r26, 0x07	; 7
     d6a:	08 95       	ret

00000d6c <__fpcmp_parts_f>:
     d6c:	1f 93       	push	r17
     d6e:	dc 01       	movw	r26, r24
     d70:	fb 01       	movw	r30, r22
     d72:	9c 91       	ld	r25, X
     d74:	92 30       	cpi	r25, 0x02	; 2
     d76:	08 f4       	brcc	.+2      	; 0xd7a <__fpcmp_parts_f+0xe>
     d78:	47 c0       	rjmp	.+142    	; 0xe08 <__fpcmp_parts_f+0x9c>
     d7a:	80 81       	ld	r24, Z
     d7c:	82 30       	cpi	r24, 0x02	; 2
     d7e:	08 f4       	brcc	.+2      	; 0xd82 <__fpcmp_parts_f+0x16>
     d80:	43 c0       	rjmp	.+134    	; 0xe08 <__fpcmp_parts_f+0x9c>
     d82:	94 30       	cpi	r25, 0x04	; 4
     d84:	51 f4       	brne	.+20     	; 0xd9a <__fpcmp_parts_f+0x2e>
     d86:	11 96       	adiw	r26, 0x01	; 1
     d88:	1c 91       	ld	r17, X
     d8a:	84 30       	cpi	r24, 0x04	; 4
     d8c:	99 f5       	brne	.+102    	; 0xdf4 <__fpcmp_parts_f+0x88>
     d8e:	81 81       	ldd	r24, Z+1	; 0x01
     d90:	68 2f       	mov	r22, r24
     d92:	70 e0       	ldi	r23, 0x00	; 0
     d94:	61 1b       	sub	r22, r17
     d96:	71 09       	sbc	r23, r1
     d98:	3f c0       	rjmp	.+126    	; 0xe18 <__fpcmp_parts_f+0xac>
     d9a:	84 30       	cpi	r24, 0x04	; 4
     d9c:	21 f0       	breq	.+8      	; 0xda6 <__fpcmp_parts_f+0x3a>
     d9e:	92 30       	cpi	r25, 0x02	; 2
     da0:	31 f4       	brne	.+12     	; 0xdae <__fpcmp_parts_f+0x42>
     da2:	82 30       	cpi	r24, 0x02	; 2
     da4:	b9 f1       	breq	.+110    	; 0xe14 <__fpcmp_parts_f+0xa8>
     da6:	81 81       	ldd	r24, Z+1	; 0x01
     da8:	88 23       	and	r24, r24
     daa:	89 f1       	breq	.+98     	; 0xe0e <__fpcmp_parts_f+0xa2>
     dac:	2d c0       	rjmp	.+90     	; 0xe08 <__fpcmp_parts_f+0x9c>
     dae:	11 96       	adiw	r26, 0x01	; 1
     db0:	1c 91       	ld	r17, X
     db2:	11 97       	sbiw	r26, 0x01	; 1
     db4:	82 30       	cpi	r24, 0x02	; 2
     db6:	f1 f0       	breq	.+60     	; 0xdf4 <__fpcmp_parts_f+0x88>
     db8:	81 81       	ldd	r24, Z+1	; 0x01
     dba:	18 17       	cp	r17, r24
     dbc:	d9 f4       	brne	.+54     	; 0xdf4 <__fpcmp_parts_f+0x88>
     dbe:	12 96       	adiw	r26, 0x02	; 2
     dc0:	2d 91       	ld	r18, X+
     dc2:	3c 91       	ld	r19, X
     dc4:	13 97       	sbiw	r26, 0x03	; 3
     dc6:	82 81       	ldd	r24, Z+2	; 0x02
     dc8:	93 81       	ldd	r25, Z+3	; 0x03
     dca:	82 17       	cp	r24, r18
     dcc:	93 07       	cpc	r25, r19
     dce:	94 f0       	brlt	.+36     	; 0xdf4 <__fpcmp_parts_f+0x88>
     dd0:	28 17       	cp	r18, r24
     dd2:	39 07       	cpc	r19, r25
     dd4:	bc f0       	brlt	.+46     	; 0xe04 <__fpcmp_parts_f+0x98>
     dd6:	14 96       	adiw	r26, 0x04	; 4
     dd8:	8d 91       	ld	r24, X+
     dda:	9d 91       	ld	r25, X+
     ddc:	0d 90       	ld	r0, X+
     dde:	bc 91       	ld	r27, X
     de0:	a0 2d       	mov	r26, r0
     de2:	24 81       	ldd	r18, Z+4	; 0x04
     de4:	35 81       	ldd	r19, Z+5	; 0x05
     de6:	46 81       	ldd	r20, Z+6	; 0x06
     de8:	57 81       	ldd	r21, Z+7	; 0x07
     dea:	28 17       	cp	r18, r24
     dec:	39 07       	cpc	r19, r25
     dee:	4a 07       	cpc	r20, r26
     df0:	5b 07       	cpc	r21, r27
     df2:	18 f4       	brcc	.+6      	; 0xdfa <__fpcmp_parts_f+0x8e>
     df4:	11 23       	and	r17, r17
     df6:	41 f0       	breq	.+16     	; 0xe08 <__fpcmp_parts_f+0x9c>
     df8:	0a c0       	rjmp	.+20     	; 0xe0e <__fpcmp_parts_f+0xa2>
     dfa:	82 17       	cp	r24, r18
     dfc:	93 07       	cpc	r25, r19
     dfe:	a4 07       	cpc	r26, r20
     e00:	b5 07       	cpc	r27, r21
     e02:	40 f4       	brcc	.+16     	; 0xe14 <__fpcmp_parts_f+0xa8>
     e04:	11 23       	and	r17, r17
     e06:	19 f0       	breq	.+6      	; 0xe0e <__fpcmp_parts_f+0xa2>
     e08:	61 e0       	ldi	r22, 0x01	; 1
     e0a:	70 e0       	ldi	r23, 0x00	; 0
     e0c:	05 c0       	rjmp	.+10     	; 0xe18 <__fpcmp_parts_f+0xac>
     e0e:	6f ef       	ldi	r22, 0xFF	; 255
     e10:	7f ef       	ldi	r23, 0xFF	; 255
     e12:	02 c0       	rjmp	.+4      	; 0xe18 <__fpcmp_parts_f+0xac>
     e14:	60 e0       	ldi	r22, 0x00	; 0
     e16:	70 e0       	ldi	r23, 0x00	; 0
     e18:	cb 01       	movw	r24, r22
     e1a:	1f 91       	pop	r17
     e1c:	08 95       	ret

00000e1e <SSD_Init>:
 *      Author: 20100
 */
#include"SSD.h"

void SSD_Init(void)
{
     e1e:	df 93       	push	r29
     e20:	cf 93       	push	r28
     e22:	cd b7       	in	r28, 0x3d	; 61
     e24:	de b7       	in	r29, 0x3e	; 62
	// CONFIGURE DATA LINES AS OUTPUT
	Dio_ConfigChannel(DIO_PORTA, DIO_PIN4, OUTPUT);
     e26:	80 e0       	ldi	r24, 0x00	; 0
     e28:	64 e0       	ldi	r22, 0x04	; 4
     e2a:	41 e0       	ldi	r20, 0x01	; 1
     e2c:	0e 94 85 18 	call	0x310a	; 0x310a <Dio_ConfigChannel>
	Dio_ConfigChannel(DIO_PORTA, DIO_PIN5, OUTPUT);
     e30:	80 e0       	ldi	r24, 0x00	; 0
     e32:	65 e0       	ldi	r22, 0x05	; 5
     e34:	41 e0       	ldi	r20, 0x01	; 1
     e36:	0e 94 85 18 	call	0x310a	; 0x310a <Dio_ConfigChannel>
	Dio_ConfigChannel(DIO_PORTA, DIO_PIN6, OUTPUT);
     e3a:	80 e0       	ldi	r24, 0x00	; 0
     e3c:	66 e0       	ldi	r22, 0x06	; 6
     e3e:	41 e0       	ldi	r20, 0x01	; 1
     e40:	0e 94 85 18 	call	0x310a	; 0x310a <Dio_ConfigChannel>
	Dio_ConfigChannel(DIO_PORTA, DIO_PIN7, OUTPUT);
     e44:	80 e0       	ldi	r24, 0x00	; 0
     e46:	67 e0       	ldi	r22, 0x07	; 7
     e48:	41 e0       	ldi	r20, 0x01	; 1
     e4a:	0e 94 85 18 	call	0x310a	; 0x310a <Dio_ConfigChannel>


	// CONFIGURE CONTROL LINES AS OUTPUT
	Dio_ConfigChannel(DIO_PORTB, DIO_PIN1, OUTPUT);
     e4e:	81 e0       	ldi	r24, 0x01	; 1
     e50:	61 e0       	ldi	r22, 0x01	; 1
     e52:	41 e0       	ldi	r20, 0x01	; 1
     e54:	0e 94 85 18 	call	0x310a	; 0x310a <Dio_ConfigChannel>
	Dio_ConfigChannel(DIO_PORTB, DIO_PIN2, OUTPUT);
     e58:	81 e0       	ldi	r24, 0x01	; 1
     e5a:	62 e0       	ldi	r22, 0x02	; 2
     e5c:	41 e0       	ldi	r20, 0x01	; 1
     e5e:	0e 94 85 18 	call	0x310a	; 0x310a <Dio_ConfigChannel>

}
     e62:	cf 91       	pop	r28
     e64:	df 91       	pop	r29
     e66:	08 95       	ret

00000e68 <SSD_DisplayNumber>:
because the second one is at the end so it
will stay on untill the function work again
but the first one will be off at
that time so your eye will notice*/
SSD_DisplayNumber(u8 num)
{
     e68:	df 93       	push	r29
     e6a:	cf 93       	push	r28
     e6c:	cd b7       	in	r28, 0x3d	; 61
     e6e:	de b7       	in	r29, 0x3e	; 62
     e70:	af 97       	sbiw	r28, 0x2f	; 47
     e72:	0f b6       	in	r0, 0x3f	; 63
     e74:	f8 94       	cli
     e76:	de bf       	out	0x3e, r29	; 62
     e78:	0f be       	out	0x3f, r0	; 63
     e7a:	cd bf       	out	0x3d, r28	; 61
     e7c:	8d a7       	std	Y+45, r24	; 0x2d
	u8 loc_FirstDigit = (num/10)<<4;
     e7e:	8d a5       	ldd	r24, Y+45	; 0x2d
     e80:	9a e0       	ldi	r25, 0x0A	; 10
     e82:	69 2f       	mov	r22, r25
     e84:	0e 94 ec 1c 	call	0x39d8	; 0x39d8 <__udivmodqi4>
     e88:	82 95       	swap	r24
     e8a:	80 7f       	andi	r24, 0xF0	; 240
     e8c:	8c a7       	std	Y+44, r24	; 0x2c
	u8 loc_SecondtDigit = (num%10)<<4;
     e8e:	8d a5       	ldd	r24, Y+45	; 0x2d
     e90:	9a e0       	ldi	r25, 0x0A	; 10
     e92:	69 2f       	mov	r22, r25
     e94:	0e 94 ec 1c 	call	0x39d8	; 0x39d8 <__udivmodqi4>
     e98:	89 2f       	mov	r24, r25
     e9a:	82 95       	swap	r24
     e9c:	80 7f       	andi	r24, 0xF0	; 240
     e9e:	8b a7       	std	Y+43, r24	; 0x2b
	Dio_WriteGroup(DIO_PORTA, SSD_MASK, loc_FirstDigit);
     ea0:	80 e0       	ldi	r24, 0x00	; 0
     ea2:	60 ef       	ldi	r22, 0xF0	; 240
     ea4:	4c a5       	ldd	r20, Y+44	; 0x2c
     ea6:	0e 94 4b 1a 	call	0x3496	; 0x3496 <Dio_WriteGroup>
     eaa:	80 e0       	ldi	r24, 0x00	; 0
     eac:	90 e0       	ldi	r25, 0x00	; 0
     eae:	a0 e8       	ldi	r26, 0x80	; 128
     eb0:	bf e3       	ldi	r27, 0x3F	; 63
     eb2:	8f a3       	std	Y+39, r24	; 0x27
     eb4:	98 a7       	std	Y+40, r25	; 0x28
     eb6:	a9 a7       	std	Y+41, r26	; 0x29
     eb8:	ba a7       	std	Y+42, r27	; 0x2a
 */
void
_delay_ms(double __ms)
{
	uint16_t __ticks;
	double __tmp = ((F_CPU) / 4e3) * __ms;
     eba:	6f a1       	ldd	r22, Y+39	; 0x27
     ebc:	78 a5       	ldd	r23, Y+40	; 0x28
     ebe:	89 a5       	ldd	r24, Y+41	; 0x29
     ec0:	9a a5       	ldd	r25, Y+42	; 0x2a
     ec2:	20 e0       	ldi	r18, 0x00	; 0
     ec4:	30 e0       	ldi	r19, 0x00	; 0
     ec6:	4a ef       	ldi	r20, 0xFA	; 250
     ec8:	54 e4       	ldi	r21, 0x44	; 68
     eca:	0e 94 17 02 	call	0x42e	; 0x42e <__mulsf3>
     ece:	dc 01       	movw	r26, r24
     ed0:	cb 01       	movw	r24, r22
     ed2:	8b a3       	std	Y+35, r24	; 0x23
     ed4:	9c a3       	std	Y+36, r25	; 0x24
     ed6:	ad a3       	std	Y+37, r26	; 0x25
     ed8:	be a3       	std	Y+38, r27	; 0x26
	if (__tmp < 1.0)
     eda:	6b a1       	ldd	r22, Y+35	; 0x23
     edc:	7c a1       	ldd	r23, Y+36	; 0x24
     ede:	8d a1       	ldd	r24, Y+37	; 0x25
     ee0:	9e a1       	ldd	r25, Y+38	; 0x26
     ee2:	20 e0       	ldi	r18, 0x00	; 0
     ee4:	30 e0       	ldi	r19, 0x00	; 0
     ee6:	40 e8       	ldi	r20, 0x80	; 128
     ee8:	5f e3       	ldi	r21, 0x3F	; 63
     eea:	0e 94 1d 04 	call	0x83a	; 0x83a <__ltsf2>
     eee:	88 23       	and	r24, r24
     ef0:	2c f4       	brge	.+10     	; 0xefc <SSD_DisplayNumber+0x94>
		__ticks = 1;
     ef2:	81 e0       	ldi	r24, 0x01	; 1
     ef4:	90 e0       	ldi	r25, 0x00	; 0
     ef6:	9a a3       	std	Y+34, r25	; 0x22
     ef8:	89 a3       	std	Y+33, r24	; 0x21
     efa:	3f c0       	rjmp	.+126    	; 0xf7a <SSD_DisplayNumber+0x112>
	else if (__tmp > 65535)
     efc:	6b a1       	ldd	r22, Y+35	; 0x23
     efe:	7c a1       	ldd	r23, Y+36	; 0x24
     f00:	8d a1       	ldd	r24, Y+37	; 0x25
     f02:	9e a1       	ldd	r25, Y+38	; 0x26
     f04:	20 e0       	ldi	r18, 0x00	; 0
     f06:	3f ef       	ldi	r19, 0xFF	; 255
     f08:	4f e7       	ldi	r20, 0x7F	; 127
     f0a:	57 e4       	ldi	r21, 0x47	; 71
     f0c:	0e 94 bd 03 	call	0x77a	; 0x77a <__gtsf2>
     f10:	18 16       	cp	r1, r24
     f12:	4c f5       	brge	.+82     	; 0xf66 <SSD_DisplayNumber+0xfe>
	{
		//	__ticks = requested delay in 1/10 ms
		__ticks = (uint16_t) (__ms * 10.0);
     f14:	6f a1       	ldd	r22, Y+39	; 0x27
     f16:	78 a5       	ldd	r23, Y+40	; 0x28
     f18:	89 a5       	ldd	r24, Y+41	; 0x29
     f1a:	9a a5       	ldd	r25, Y+42	; 0x2a
     f1c:	20 e0       	ldi	r18, 0x00	; 0
     f1e:	30 e0       	ldi	r19, 0x00	; 0
     f20:	40 e2       	ldi	r20, 0x20	; 32
     f22:	51 e4       	ldi	r21, 0x41	; 65
     f24:	0e 94 17 02 	call	0x42e	; 0x42e <__mulsf3>
     f28:	dc 01       	movw	r26, r24
     f2a:	cb 01       	movw	r24, r22
     f2c:	bc 01       	movw	r22, r24
     f2e:	cd 01       	movw	r24, r26
     f30:	0e 94 41 00 	call	0x82	; 0x82 <__fixunssfsi>
     f34:	dc 01       	movw	r26, r24
     f36:	cb 01       	movw	r24, r22
     f38:	9a a3       	std	Y+34, r25	; 0x22
     f3a:	89 a3       	std	Y+33, r24	; 0x21
     f3c:	0f c0       	rjmp	.+30     	; 0xf5c <SSD_DisplayNumber+0xf4>
     f3e:	88 ec       	ldi	r24, 0xC8	; 200
     f40:	90 e0       	ldi	r25, 0x00	; 0
     f42:	98 a3       	std	Y+32, r25	; 0x20
     f44:	8f 8f       	std	Y+31, r24	; 0x1f
    milliseconds can be achieved.
 */
void
_delay_loop_2(uint16_t __count)
{
	__asm__ volatile (
     f46:	8f 8d       	ldd	r24, Y+31	; 0x1f
     f48:	98 a1       	ldd	r25, Y+32	; 0x20
     f4a:	01 97       	sbiw	r24, 0x01	; 1
     f4c:	f1 f7       	brne	.-4      	; 0xf4a <SSD_DisplayNumber+0xe2>
     f4e:	98 a3       	std	Y+32, r25	; 0x20
     f50:	8f 8f       	std	Y+31, r24	; 0x1f
		while(__ticks)
		{
			// wait 1/10 ms
			_delay_loop_2(((F_CPU) / 4e3) / 10);
			__ticks --;
     f52:	89 a1       	ldd	r24, Y+33	; 0x21
     f54:	9a a1       	ldd	r25, Y+34	; 0x22
     f56:	01 97       	sbiw	r24, 0x01	; 1
     f58:	9a a3       	std	Y+34, r25	; 0x22
     f5a:	89 a3       	std	Y+33, r24	; 0x21
		__ticks = 1;
	else if (__tmp > 65535)
	{
		//	__ticks = requested delay in 1/10 ms
		__ticks = (uint16_t) (__ms * 10.0);
		while(__ticks)
     f5c:	89 a1       	ldd	r24, Y+33	; 0x21
     f5e:	9a a1       	ldd	r25, Y+34	; 0x22
     f60:	00 97       	sbiw	r24, 0x00	; 0
     f62:	69 f7       	brne	.-38     	; 0xf3e <SSD_DisplayNumber+0xd6>
     f64:	14 c0       	rjmp	.+40     	; 0xf8e <SSD_DisplayNumber+0x126>
			__ticks --;
		}
		return;
	}
	else
		__ticks = (uint16_t)__tmp;
     f66:	6b a1       	ldd	r22, Y+35	; 0x23
     f68:	7c a1       	ldd	r23, Y+36	; 0x24
     f6a:	8d a1       	ldd	r24, Y+37	; 0x25
     f6c:	9e a1       	ldd	r25, Y+38	; 0x26
     f6e:	0e 94 41 00 	call	0x82	; 0x82 <__fixunssfsi>
     f72:	dc 01       	movw	r26, r24
     f74:	cb 01       	movw	r24, r22
     f76:	9a a3       	std	Y+34, r25	; 0x22
     f78:	89 a3       	std	Y+33, r24	; 0x21
     f7a:	89 a1       	ldd	r24, Y+33	; 0x21
     f7c:	9a a1       	ldd	r25, Y+34	; 0x22
     f7e:	9e 8f       	std	Y+30, r25	; 0x1e
     f80:	8d 8f       	std	Y+29, r24	; 0x1d
     f82:	8d 8d       	ldd	r24, Y+29	; 0x1d
     f84:	9e 8d       	ldd	r25, Y+30	; 0x1e
     f86:	01 97       	sbiw	r24, 0x01	; 1
     f88:	f1 f7       	brne	.-4      	; 0xf86 <SSD_DisplayNumber+0x11e>
     f8a:	9e 8f       	std	Y+30, r25	; 0x1e
     f8c:	8d 8f       	std	Y+29, r24	; 0x1d
	_delay_ms(1);
	//enable ssd1
	Dio_WriteChannel(DIO_PORTB, DIO_PIN2, STD_HIGH);
     f8e:	81 e0       	ldi	r24, 0x01	; 1
     f90:	62 e0       	ldi	r22, 0x02	; 2
     f92:	41 e0       	ldi	r20, 0x01	; 1
     f94:	0e 94 68 19 	call	0x32d0	; 0x32d0 <Dio_WriteChannel>
	//disable ssd2
	Dio_WriteChannel(DIO_PORTB, DIO_PIN1, STD_LOW);
     f98:	81 e0       	ldi	r24, 0x01	; 1
     f9a:	61 e0       	ldi	r22, 0x01	; 1
     f9c:	40 e0       	ldi	r20, 0x00	; 0
     f9e:	0e 94 68 19 	call	0x32d0	; 0x32d0 <Dio_WriteChannel>
	//DIO_PORTA_REG = (num/10)<<4;
	Dio_WriteGroup(DIO_PORTA, SSD_MASK, loc_FirstDigit);
     fa2:	80 e0       	ldi	r24, 0x00	; 0
     fa4:	60 ef       	ldi	r22, 0xF0	; 240
     fa6:	4c a5       	ldd	r20, Y+44	; 0x2c
     fa8:	0e 94 4b 1a 	call	0x3496	; 0x3496 <Dio_WriteGroup>
     fac:	80 e0       	ldi	r24, 0x00	; 0
     fae:	90 e0       	ldi	r25, 0x00	; 0
     fb0:	a0 e8       	ldi	r26, 0x80	; 128
     fb2:	bf e3       	ldi	r27, 0x3F	; 63
     fb4:	89 8f       	std	Y+25, r24	; 0x19
     fb6:	9a 8f       	std	Y+26, r25	; 0x1a
     fb8:	ab 8f       	std	Y+27, r26	; 0x1b
     fba:	bc 8f       	std	Y+28, r27	; 0x1c
 */
void
_delay_ms(double __ms)
{
	uint16_t __ticks;
	double __tmp = ((F_CPU) / 4e3) * __ms;
     fbc:	69 8d       	ldd	r22, Y+25	; 0x19
     fbe:	7a 8d       	ldd	r23, Y+26	; 0x1a
     fc0:	8b 8d       	ldd	r24, Y+27	; 0x1b
     fc2:	9c 8d       	ldd	r25, Y+28	; 0x1c
     fc4:	20 e0       	ldi	r18, 0x00	; 0
     fc6:	30 e0       	ldi	r19, 0x00	; 0
     fc8:	4a ef       	ldi	r20, 0xFA	; 250
     fca:	54 e4       	ldi	r21, 0x44	; 68
     fcc:	0e 94 17 02 	call	0x42e	; 0x42e <__mulsf3>
     fd0:	dc 01       	movw	r26, r24
     fd2:	cb 01       	movw	r24, r22
     fd4:	8d 8b       	std	Y+21, r24	; 0x15
     fd6:	9e 8b       	std	Y+22, r25	; 0x16
     fd8:	af 8b       	std	Y+23, r26	; 0x17
     fda:	b8 8f       	std	Y+24, r27	; 0x18
	if (__tmp < 1.0)
     fdc:	6d 89       	ldd	r22, Y+21	; 0x15
     fde:	7e 89       	ldd	r23, Y+22	; 0x16
     fe0:	8f 89       	ldd	r24, Y+23	; 0x17
     fe2:	98 8d       	ldd	r25, Y+24	; 0x18
     fe4:	20 e0       	ldi	r18, 0x00	; 0
     fe6:	30 e0       	ldi	r19, 0x00	; 0
     fe8:	40 e8       	ldi	r20, 0x80	; 128
     fea:	5f e3       	ldi	r21, 0x3F	; 63
     fec:	0e 94 1d 04 	call	0x83a	; 0x83a <__ltsf2>
     ff0:	88 23       	and	r24, r24
     ff2:	2c f4       	brge	.+10     	; 0xffe <SSD_DisplayNumber+0x196>
		__ticks = 1;
     ff4:	81 e0       	ldi	r24, 0x01	; 1
     ff6:	90 e0       	ldi	r25, 0x00	; 0
     ff8:	9c 8b       	std	Y+20, r25	; 0x14
     ffa:	8b 8b       	std	Y+19, r24	; 0x13
     ffc:	3f c0       	rjmp	.+126    	; 0x107c <SSD_DisplayNumber+0x214>
	else if (__tmp > 65535)
     ffe:	6d 89       	ldd	r22, Y+21	; 0x15
    1000:	7e 89       	ldd	r23, Y+22	; 0x16
    1002:	8f 89       	ldd	r24, Y+23	; 0x17
    1004:	98 8d       	ldd	r25, Y+24	; 0x18
    1006:	20 e0       	ldi	r18, 0x00	; 0
    1008:	3f ef       	ldi	r19, 0xFF	; 255
    100a:	4f e7       	ldi	r20, 0x7F	; 127
    100c:	57 e4       	ldi	r21, 0x47	; 71
    100e:	0e 94 bd 03 	call	0x77a	; 0x77a <__gtsf2>
    1012:	18 16       	cp	r1, r24
    1014:	4c f5       	brge	.+82     	; 0x1068 <SSD_DisplayNumber+0x200>
	{
		//	__ticks = requested delay in 1/10 ms
		__ticks = (uint16_t) (__ms * 10.0);
    1016:	69 8d       	ldd	r22, Y+25	; 0x19
    1018:	7a 8d       	ldd	r23, Y+26	; 0x1a
    101a:	8b 8d       	ldd	r24, Y+27	; 0x1b
    101c:	9c 8d       	ldd	r25, Y+28	; 0x1c
    101e:	20 e0       	ldi	r18, 0x00	; 0
    1020:	30 e0       	ldi	r19, 0x00	; 0
    1022:	40 e2       	ldi	r20, 0x20	; 32
    1024:	51 e4       	ldi	r21, 0x41	; 65
    1026:	0e 94 17 02 	call	0x42e	; 0x42e <__mulsf3>
    102a:	dc 01       	movw	r26, r24
    102c:	cb 01       	movw	r24, r22
    102e:	bc 01       	movw	r22, r24
    1030:	cd 01       	movw	r24, r26
    1032:	0e 94 41 00 	call	0x82	; 0x82 <__fixunssfsi>
    1036:	dc 01       	movw	r26, r24
    1038:	cb 01       	movw	r24, r22
    103a:	9c 8b       	std	Y+20, r25	; 0x14
    103c:	8b 8b       	std	Y+19, r24	; 0x13
    103e:	0f c0       	rjmp	.+30     	; 0x105e <SSD_DisplayNumber+0x1f6>
    1040:	88 ec       	ldi	r24, 0xC8	; 200
    1042:	90 e0       	ldi	r25, 0x00	; 0
    1044:	9a 8b       	std	Y+18, r25	; 0x12
    1046:	89 8b       	std	Y+17, r24	; 0x11
    1048:	89 89       	ldd	r24, Y+17	; 0x11
    104a:	9a 89       	ldd	r25, Y+18	; 0x12
    104c:	01 97       	sbiw	r24, 0x01	; 1
    104e:	f1 f7       	brne	.-4      	; 0x104c <SSD_DisplayNumber+0x1e4>
    1050:	9a 8b       	std	Y+18, r25	; 0x12
    1052:	89 8b       	std	Y+17, r24	; 0x11
		while(__ticks)
		{
			// wait 1/10 ms
			_delay_loop_2(((F_CPU) / 4e3) / 10);
			__ticks --;
    1054:	8b 89       	ldd	r24, Y+19	; 0x13
    1056:	9c 89       	ldd	r25, Y+20	; 0x14
    1058:	01 97       	sbiw	r24, 0x01	; 1
    105a:	9c 8b       	std	Y+20, r25	; 0x14
    105c:	8b 8b       	std	Y+19, r24	; 0x13
		__ticks = 1;
	else if (__tmp > 65535)
	{
		//	__ticks = requested delay in 1/10 ms
		__ticks = (uint16_t) (__ms * 10.0);
		while(__ticks)
    105e:	8b 89       	ldd	r24, Y+19	; 0x13
    1060:	9c 89       	ldd	r25, Y+20	; 0x14
    1062:	00 97       	sbiw	r24, 0x00	; 0
    1064:	69 f7       	brne	.-38     	; 0x1040 <SSD_DisplayNumber+0x1d8>
    1066:	14 c0       	rjmp	.+40     	; 0x1090 <SSD_DisplayNumber+0x228>
			__ticks --;
		}
		return;
	}
	else
		__ticks = (uint16_t)__tmp;
    1068:	6d 89       	ldd	r22, Y+21	; 0x15
    106a:	7e 89       	ldd	r23, Y+22	; 0x16
    106c:	8f 89       	ldd	r24, Y+23	; 0x17
    106e:	98 8d       	ldd	r25, Y+24	; 0x18
    1070:	0e 94 41 00 	call	0x82	; 0x82 <__fixunssfsi>
    1074:	dc 01       	movw	r26, r24
    1076:	cb 01       	movw	r24, r22
    1078:	9c 8b       	std	Y+20, r25	; 0x14
    107a:	8b 8b       	std	Y+19, r24	; 0x13
    107c:	8b 89       	ldd	r24, Y+19	; 0x13
    107e:	9c 89       	ldd	r25, Y+20	; 0x14
    1080:	98 8b       	std	Y+16, r25	; 0x10
    1082:	8f 87       	std	Y+15, r24	; 0x0f
    1084:	8f 85       	ldd	r24, Y+15	; 0x0f
    1086:	98 89       	ldd	r25, Y+16	; 0x10
    1088:	01 97       	sbiw	r24, 0x01	; 1
    108a:	f1 f7       	brne	.-4      	; 0x1088 <SSD_DisplayNumber+0x220>
    108c:	98 8b       	std	Y+16, r25	; 0x10
    108e:	8f 87       	std	Y+15, r24	; 0x0f
	//wait (1m)
	_delay_ms(1);
	//disable ssd1
	Dio_WriteChannel(DIO_PORTB, DIO_PIN2, STD_LOW);
    1090:	81 e0       	ldi	r24, 0x01	; 1
    1092:	62 e0       	ldi	r22, 0x02	; 2
    1094:	40 e0       	ldi	r20, 0x00	; 0
    1096:	0e 94 68 19 	call	0x32d0	; 0x32d0 <Dio_WriteChannel>
	//enable ssd2
	Dio_WriteChannel(DIO_PORTB, DIO_PIN1, STD_HIGH);
    109a:	81 e0       	ldi	r24, 0x01	; 1
    109c:	61 e0       	ldi	r22, 0x01	; 1
    109e:	41 e0       	ldi	r20, 0x01	; 1
    10a0:	0e 94 68 19 	call	0x32d0	; 0x32d0 <Dio_WriteChannel>
	//DIO_PORTA_REG = (num%10)<<4;
	Dio_WriteGroup(DIO_PORTA, SSD_MASK, loc_SecondtDigit);
    10a4:	80 e0       	ldi	r24, 0x00	; 0
    10a6:	60 ef       	ldi	r22, 0xF0	; 240
    10a8:	4b a5       	ldd	r20, Y+43	; 0x2b
    10aa:	0e 94 4b 1a 	call	0x3496	; 0x3496 <Dio_WriteGroup>
    10ae:	80 e0       	ldi	r24, 0x00	; 0
    10b0:	90 e0       	ldi	r25, 0x00	; 0
    10b2:	a0 e8       	ldi	r26, 0x80	; 128
    10b4:	bf e3       	ldi	r27, 0x3F	; 63
    10b6:	8b 87       	std	Y+11, r24	; 0x0b
    10b8:	9c 87       	std	Y+12, r25	; 0x0c
    10ba:	ad 87       	std	Y+13, r26	; 0x0d
    10bc:	be 87       	std	Y+14, r27	; 0x0e
 */
void
_delay_ms(double __ms)
{
	uint16_t __ticks;
	double __tmp = ((F_CPU) / 4e3) * __ms;
    10be:	6b 85       	ldd	r22, Y+11	; 0x0b
    10c0:	7c 85       	ldd	r23, Y+12	; 0x0c
    10c2:	8d 85       	ldd	r24, Y+13	; 0x0d
    10c4:	9e 85       	ldd	r25, Y+14	; 0x0e
    10c6:	20 e0       	ldi	r18, 0x00	; 0
    10c8:	30 e0       	ldi	r19, 0x00	; 0
    10ca:	4a ef       	ldi	r20, 0xFA	; 250
    10cc:	54 e4       	ldi	r21, 0x44	; 68
    10ce:	0e 94 17 02 	call	0x42e	; 0x42e <__mulsf3>
    10d2:	dc 01       	movw	r26, r24
    10d4:	cb 01       	movw	r24, r22
    10d6:	8f 83       	std	Y+7, r24	; 0x07
    10d8:	98 87       	std	Y+8, r25	; 0x08
    10da:	a9 87       	std	Y+9, r26	; 0x09
    10dc:	ba 87       	std	Y+10, r27	; 0x0a
	if (__tmp < 1.0)
    10de:	6f 81       	ldd	r22, Y+7	; 0x07
    10e0:	78 85       	ldd	r23, Y+8	; 0x08
    10e2:	89 85       	ldd	r24, Y+9	; 0x09
    10e4:	9a 85       	ldd	r25, Y+10	; 0x0a
    10e6:	20 e0       	ldi	r18, 0x00	; 0
    10e8:	30 e0       	ldi	r19, 0x00	; 0
    10ea:	40 e8       	ldi	r20, 0x80	; 128
    10ec:	5f e3       	ldi	r21, 0x3F	; 63
    10ee:	0e 94 1d 04 	call	0x83a	; 0x83a <__ltsf2>
    10f2:	88 23       	and	r24, r24
    10f4:	2c f4       	brge	.+10     	; 0x1100 <SSD_DisplayNumber+0x298>
		__ticks = 1;
    10f6:	81 e0       	ldi	r24, 0x01	; 1
    10f8:	90 e0       	ldi	r25, 0x00	; 0
    10fa:	9e 83       	std	Y+6, r25	; 0x06
    10fc:	8d 83       	std	Y+5, r24	; 0x05
    10fe:	3f c0       	rjmp	.+126    	; 0x117e <SSD_DisplayNumber+0x316>
	else if (__tmp > 65535)
    1100:	6f 81       	ldd	r22, Y+7	; 0x07
    1102:	78 85       	ldd	r23, Y+8	; 0x08
    1104:	89 85       	ldd	r24, Y+9	; 0x09
    1106:	9a 85       	ldd	r25, Y+10	; 0x0a
    1108:	20 e0       	ldi	r18, 0x00	; 0
    110a:	3f ef       	ldi	r19, 0xFF	; 255
    110c:	4f e7       	ldi	r20, 0x7F	; 127
    110e:	57 e4       	ldi	r21, 0x47	; 71
    1110:	0e 94 bd 03 	call	0x77a	; 0x77a <__gtsf2>
    1114:	18 16       	cp	r1, r24
    1116:	4c f5       	brge	.+82     	; 0x116a <SSD_DisplayNumber+0x302>
	{
		//	__ticks = requested delay in 1/10 ms
		__ticks = (uint16_t) (__ms * 10.0);
    1118:	6b 85       	ldd	r22, Y+11	; 0x0b
    111a:	7c 85       	ldd	r23, Y+12	; 0x0c
    111c:	8d 85       	ldd	r24, Y+13	; 0x0d
    111e:	9e 85       	ldd	r25, Y+14	; 0x0e
    1120:	20 e0       	ldi	r18, 0x00	; 0
    1122:	30 e0       	ldi	r19, 0x00	; 0
    1124:	40 e2       	ldi	r20, 0x20	; 32
    1126:	51 e4       	ldi	r21, 0x41	; 65
    1128:	0e 94 17 02 	call	0x42e	; 0x42e <__mulsf3>
    112c:	dc 01       	movw	r26, r24
    112e:	cb 01       	movw	r24, r22
    1130:	bc 01       	movw	r22, r24
    1132:	cd 01       	movw	r24, r26
    1134:	0e 94 41 00 	call	0x82	; 0x82 <__fixunssfsi>
    1138:	dc 01       	movw	r26, r24
    113a:	cb 01       	movw	r24, r22
    113c:	9e 83       	std	Y+6, r25	; 0x06
    113e:	8d 83       	std	Y+5, r24	; 0x05
    1140:	0f c0       	rjmp	.+30     	; 0x1160 <SSD_DisplayNumber+0x2f8>
    1142:	88 ec       	ldi	r24, 0xC8	; 200
    1144:	90 e0       	ldi	r25, 0x00	; 0
    1146:	9c 83       	std	Y+4, r25	; 0x04
    1148:	8b 83       	std	Y+3, r24	; 0x03
    114a:	8b 81       	ldd	r24, Y+3	; 0x03
    114c:	9c 81       	ldd	r25, Y+4	; 0x04
    114e:	01 97       	sbiw	r24, 0x01	; 1
    1150:	f1 f7       	brne	.-4      	; 0x114e <SSD_DisplayNumber+0x2e6>
    1152:	9c 83       	std	Y+4, r25	; 0x04
    1154:	8b 83       	std	Y+3, r24	; 0x03
		while(__ticks)
		{
			// wait 1/10 ms
			_delay_loop_2(((F_CPU) / 4e3) / 10);
			__ticks --;
    1156:	8d 81       	ldd	r24, Y+5	; 0x05
    1158:	9e 81       	ldd	r25, Y+6	; 0x06
    115a:	01 97       	sbiw	r24, 0x01	; 1
    115c:	9e 83       	std	Y+6, r25	; 0x06
    115e:	8d 83       	std	Y+5, r24	; 0x05
		__ticks = 1;
	else if (__tmp > 65535)
	{
		//	__ticks = requested delay in 1/10 ms
		__ticks = (uint16_t) (__ms * 10.0);
		while(__ticks)
    1160:	8d 81       	ldd	r24, Y+5	; 0x05
    1162:	9e 81       	ldd	r25, Y+6	; 0x06
    1164:	00 97       	sbiw	r24, 0x00	; 0
    1166:	69 f7       	brne	.-38     	; 0x1142 <SSD_DisplayNumber+0x2da>
    1168:	14 c0       	rjmp	.+40     	; 0x1192 <SSD_DisplayNumber+0x32a>
			__ticks --;
		}
		return;
	}
	else
		__ticks = (uint16_t)__tmp;
    116a:	6f 81       	ldd	r22, Y+7	; 0x07
    116c:	78 85       	ldd	r23, Y+8	; 0x08
    116e:	89 85       	ldd	r24, Y+9	; 0x09
    1170:	9a 85       	ldd	r25, Y+10	; 0x0a
    1172:	0e 94 41 00 	call	0x82	; 0x82 <__fixunssfsi>
    1176:	dc 01       	movw	r26, r24
    1178:	cb 01       	movw	r24, r22
    117a:	9e 83       	std	Y+6, r25	; 0x06
    117c:	8d 83       	std	Y+5, r24	; 0x05
    117e:	8d 81       	ldd	r24, Y+5	; 0x05
    1180:	9e 81       	ldd	r25, Y+6	; 0x06
    1182:	9a 83       	std	Y+2, r25	; 0x02
    1184:	89 83       	std	Y+1, r24	; 0x01
    1186:	89 81       	ldd	r24, Y+1	; 0x01
    1188:	9a 81       	ldd	r25, Y+2	; 0x02
    118a:	01 97       	sbiw	r24, 0x01	; 1
    118c:	f1 f7       	brne	.-4      	; 0x118a <SSD_DisplayNumber+0x322>
    118e:	9a 83       	std	Y+2, r25	; 0x02
    1190:	89 83       	std	Y+1, r24	; 0x01
	//wait (1m)
	_delay_ms(1);
}
    1192:	af 96       	adiw	r28, 0x2f	; 47
    1194:	0f b6       	in	r0, 0x3f	; 63
    1196:	f8 94       	cli
    1198:	de bf       	out	0x3e, r29	; 62
    119a:	0f be       	out	0x3f, r0	; 63
    119c:	cd bf       	out	0x3d, r28	; 61
    119e:	cf 91       	pop	r28
    11a0:	df 91       	pop	r29
    11a2:	08 95       	ret

000011a4 <LED_Init>:
 */
#include"led.h"


void LED_Init(void)
{
    11a4:	df 93       	push	r29
    11a6:	cf 93       	push	r28
    11a8:	cd b7       	in	r28, 0x3d	; 61
    11aa:	de b7       	in	r29, 0x3e	; 62
	Dio_ConfigChannel(LED0_PORT, LED0_PIN, OUTPUT);//LED 0
    11ac:	82 e0       	ldi	r24, 0x02	; 2
    11ae:	62 e0       	ldi	r22, 0x02	; 2
    11b0:	41 e0       	ldi	r20, 0x01	; 1
    11b2:	0e 94 85 18 	call	0x310a	; 0x310a <Dio_ConfigChannel>
	//SET_BIT(DIO_DDRC_REG,2);
	Dio_ConfigChannel(LED1_PORT, LED1_PIN, OUTPUT);//LED 1
    11b6:	82 e0       	ldi	r24, 0x02	; 2
    11b8:	67 e0       	ldi	r22, 0x07	; 7
    11ba:	41 e0       	ldi	r20, 0x01	; 1
    11bc:	0e 94 85 18 	call	0x310a	; 0x310a <Dio_ConfigChannel>
	//SET_BIT(DIO_DDRC_REG,7);
	Dio_ConfigChannel(LED2_PORT, LED2_PIN, OUTPUT);//LED 2
    11c0:	83 e0       	ldi	r24, 0x03	; 3
    11c2:	63 e0       	ldi	r22, 0x03	; 3
    11c4:	41 e0       	ldi	r20, 0x01	; 1
    11c6:	0e 94 85 18 	call	0x310a	; 0x310a <Dio_ConfigChannel>
	//SET_BIT(DIO_DDRD_REG,3);

}
    11ca:	cf 91       	pop	r28
    11cc:	df 91       	pop	r29
    11ce:	08 95       	ret

000011d0 <LED_ON>:
void LED_ON(led_type ledId)
{
    11d0:	df 93       	push	r29
    11d2:	cf 93       	push	r28
    11d4:	00 d0       	rcall	.+0      	; 0x11d6 <LED_ON+0x6>
    11d6:	0f 92       	push	r0
    11d8:	cd b7       	in	r28, 0x3d	; 61
    11da:	de b7       	in	r29, 0x3e	; 62
    11dc:	89 83       	std	Y+1, r24	; 0x01
	switch (ledId)
    11de:	89 81       	ldd	r24, Y+1	; 0x01
    11e0:	28 2f       	mov	r18, r24
    11e2:	30 e0       	ldi	r19, 0x00	; 0
    11e4:	3b 83       	std	Y+3, r19	; 0x03
    11e6:	2a 83       	std	Y+2, r18	; 0x02
    11e8:	8a 81       	ldd	r24, Y+2	; 0x02
    11ea:	9b 81       	ldd	r25, Y+3	; 0x03
    11ec:	81 30       	cpi	r24, 0x01	; 1
    11ee:	91 05       	cpc	r25, r1
    11f0:	79 f0       	breq	.+30     	; 0x1210 <LED_ON+0x40>
    11f2:	2a 81       	ldd	r18, Y+2	; 0x02
    11f4:	3b 81       	ldd	r19, Y+3	; 0x03
    11f6:	22 30       	cpi	r18, 0x02	; 2
    11f8:	31 05       	cpc	r19, r1
    11fa:	81 f0       	breq	.+32     	; 0x121c <LED_ON+0x4c>
    11fc:	8a 81       	ldd	r24, Y+2	; 0x02
    11fe:	9b 81       	ldd	r25, Y+3	; 0x03
    1200:	00 97       	sbiw	r24, 0x00	; 0
    1202:	89 f4       	brne	.+34     	; 0x1226 <LED_ON+0x56>
	{
	case LED0:
		Dio_WriteChannel(LED0_PORT, LED0_PIN, STD_HIGH);
    1204:	82 e0       	ldi	r24, 0x02	; 2
    1206:	62 e0       	ldi	r22, 0x02	; 2
    1208:	41 e0       	ldi	r20, 0x01	; 1
    120a:	0e 94 68 19 	call	0x32d0	; 0x32d0 <Dio_WriteChannel>
    120e:	0b c0       	rjmp	.+22     	; 0x1226 <LED_ON+0x56>
		break;
	case LED1:
		Dio_WriteChannel(LED1_PORT, LED1_PIN, STD_HIGH);
    1210:	82 e0       	ldi	r24, 0x02	; 2
    1212:	67 e0       	ldi	r22, 0x07	; 7
    1214:	41 e0       	ldi	r20, 0x01	; 1
    1216:	0e 94 68 19 	call	0x32d0	; 0x32d0 <Dio_WriteChannel>
    121a:	05 c0       	rjmp	.+10     	; 0x1226 <LED_ON+0x56>
		break;
	case LED2:
		Dio_WriteChannel(LED2_PORT, LED2_PIN, STD_HIGH);
    121c:	83 e0       	ldi	r24, 0x03	; 3
    121e:	63 e0       	ldi	r22, 0x03	; 3
    1220:	41 e0       	ldi	r20, 0x01	; 1
    1222:	0e 94 68 19 	call	0x32d0	; 0x32d0 <Dio_WriteChannel>
		break;

	}
}
    1226:	0f 90       	pop	r0
    1228:	0f 90       	pop	r0
    122a:	0f 90       	pop	r0
    122c:	cf 91       	pop	r28
    122e:	df 91       	pop	r29
    1230:	08 95       	ret

00001232 <LED_OFF>:
void LED_OFF(led_type ledId)
{
    1232:	df 93       	push	r29
    1234:	cf 93       	push	r28
    1236:	00 d0       	rcall	.+0      	; 0x1238 <LED_OFF+0x6>
    1238:	0f 92       	push	r0
    123a:	cd b7       	in	r28, 0x3d	; 61
    123c:	de b7       	in	r29, 0x3e	; 62
    123e:	89 83       	std	Y+1, r24	; 0x01
	switch (ledId)
    1240:	89 81       	ldd	r24, Y+1	; 0x01
    1242:	28 2f       	mov	r18, r24
    1244:	30 e0       	ldi	r19, 0x00	; 0
    1246:	3b 83       	std	Y+3, r19	; 0x03
    1248:	2a 83       	std	Y+2, r18	; 0x02
    124a:	8a 81       	ldd	r24, Y+2	; 0x02
    124c:	9b 81       	ldd	r25, Y+3	; 0x03
    124e:	81 30       	cpi	r24, 0x01	; 1
    1250:	91 05       	cpc	r25, r1
    1252:	79 f0       	breq	.+30     	; 0x1272 <LED_OFF+0x40>
    1254:	2a 81       	ldd	r18, Y+2	; 0x02
    1256:	3b 81       	ldd	r19, Y+3	; 0x03
    1258:	22 30       	cpi	r18, 0x02	; 2
    125a:	31 05       	cpc	r19, r1
    125c:	81 f0       	breq	.+32     	; 0x127e <LED_OFF+0x4c>
    125e:	8a 81       	ldd	r24, Y+2	; 0x02
    1260:	9b 81       	ldd	r25, Y+3	; 0x03
    1262:	00 97       	sbiw	r24, 0x00	; 0
    1264:	89 f4       	brne	.+34     	; 0x1288 <LED_OFF+0x56>
	{
	case LED0:
		Dio_WriteChannel(LED0_PORT, LED0_PIN, STD_LOW);
    1266:	82 e0       	ldi	r24, 0x02	; 2
    1268:	62 e0       	ldi	r22, 0x02	; 2
    126a:	40 e0       	ldi	r20, 0x00	; 0
    126c:	0e 94 68 19 	call	0x32d0	; 0x32d0 <Dio_WriteChannel>
    1270:	0b c0       	rjmp	.+22     	; 0x1288 <LED_OFF+0x56>
		break;
	case LED1:
		Dio_WriteChannel(LED1_PORT, LED1_PIN, STD_LOW);
    1272:	82 e0       	ldi	r24, 0x02	; 2
    1274:	67 e0       	ldi	r22, 0x07	; 7
    1276:	40 e0       	ldi	r20, 0x00	; 0
    1278:	0e 94 68 19 	call	0x32d0	; 0x32d0 <Dio_WriteChannel>
    127c:	05 c0       	rjmp	.+10     	; 0x1288 <LED_OFF+0x56>
		break;
	case LED2:
		Dio_WriteChannel(LED2_PORT, LED2_PIN, STD_LOW);
    127e:	83 e0       	ldi	r24, 0x03	; 3
    1280:	63 e0       	ldi	r22, 0x03	; 3
    1282:	40 e0       	ldi	r20, 0x00	; 0
    1284:	0e 94 68 19 	call	0x32d0	; 0x32d0 <Dio_WriteChannel>
		break;
	}


}
    1288:	0f 90       	pop	r0
    128a:	0f 90       	pop	r0
    128c:	0f 90       	pop	r0
    128e:	cf 91       	pop	r28
    1290:	df 91       	pop	r29
    1292:	08 95       	ret

00001294 <LED_TOGGLE>:
void LED_TOGGLE(led_type ledId)
{
    1294:	df 93       	push	r29
    1296:	cf 93       	push	r28
    1298:	00 d0       	rcall	.+0      	; 0x129a <LED_TOGGLE+0x6>
    129a:	0f 92       	push	r0
    129c:	cd b7       	in	r28, 0x3d	; 61
    129e:	de b7       	in	r29, 0x3e	; 62
    12a0:	89 83       	std	Y+1, r24	; 0x01

	switch (ledId)
    12a2:	89 81       	ldd	r24, Y+1	; 0x01
    12a4:	28 2f       	mov	r18, r24
    12a6:	30 e0       	ldi	r19, 0x00	; 0
    12a8:	3b 83       	std	Y+3, r19	; 0x03
    12aa:	2a 83       	std	Y+2, r18	; 0x02
    12ac:	8a 81       	ldd	r24, Y+2	; 0x02
    12ae:	9b 81       	ldd	r25, Y+3	; 0x03
    12b0:	81 30       	cpi	r24, 0x01	; 1
    12b2:	91 05       	cpc	r25, r1
    12b4:	71 f0       	breq	.+28     	; 0x12d2 <LED_TOGGLE+0x3e>
    12b6:	2a 81       	ldd	r18, Y+2	; 0x02
    12b8:	3b 81       	ldd	r19, Y+3	; 0x03
    12ba:	22 30       	cpi	r18, 0x02	; 2
    12bc:	31 05       	cpc	r19, r1
    12be:	71 f0       	breq	.+28     	; 0x12dc <LED_TOGGLE+0x48>
    12c0:	8a 81       	ldd	r24, Y+2	; 0x02
    12c2:	9b 81       	ldd	r25, Y+3	; 0x03
    12c4:	00 97       	sbiw	r24, 0x00	; 0
    12c6:	71 f4       	brne	.+28     	; 0x12e4 <LED_TOGGLE+0x50>
	{
	case LED0:
		Dio_ToggleChannel(LED0_PORT, LED0_PIN);
    12c8:	82 e0       	ldi	r24, 0x02	; 2
    12ca:	62 e0       	ldi	r22, 0x02	; 2
    12cc:	0e 94 d0 1a 	call	0x35a0	; 0x35a0 <Dio_ToggleChannel>
    12d0:	09 c0       	rjmp	.+18     	; 0x12e4 <LED_TOGGLE+0x50>
		break;
	case LED1:
		Dio_ToggleChannel(LED1_PORT, LED1_PIN);
    12d2:	82 e0       	ldi	r24, 0x02	; 2
    12d4:	67 e0       	ldi	r22, 0x07	; 7
    12d6:	0e 94 d0 1a 	call	0x35a0	; 0x35a0 <Dio_ToggleChannel>
    12da:	04 c0       	rjmp	.+8      	; 0x12e4 <LED_TOGGLE+0x50>
		break;
	case LED2:
		Dio_ToggleChannel(LED2_PORT, LED2_PIN);
    12dc:	83 e0       	ldi	r24, 0x03	; 3
    12de:	63 e0       	ldi	r22, 0x03	; 3
    12e0:	0e 94 d0 1a 	call	0x35a0	; 0x35a0 <Dio_ToggleChannel>
		break;
	}
}
    12e4:	0f 90       	pop	r0
    12e6:	0f 90       	pop	r0
    12e8:	0f 90       	pop	r0
    12ea:	cf 91       	pop	r28
    12ec:	df 91       	pop	r29
    12ee:	08 95       	ret

000012f0 <Lcd_WriteCustom>:
 * 			PA6
 * 			PA7
 * */
extern u8 customChar[8][8];
static void Lcd_WriteCustom(void)
{
    12f0:	df 93       	push	r29
    12f2:	cf 93       	push	r28
    12f4:	00 d0       	rcall	.+0      	; 0x12f6 <Lcd_WriteCustom+0x6>
    12f6:	cd b7       	in	r28, 0x3d	; 61
    12f8:	de b7       	in	r29, 0x3e	; 62
	u8 loc_ByteIndex=0;
    12fa:	1a 82       	std	Y+2, r1	; 0x02
	u8 loc_CharIndx=0;
    12fc:	19 82       	std	Y+1, r1	; 0x01
	for (loc_CharIndx=0;loc_CharIndx<NO_CSTOM_CHAR;loc_CharIndx++)
    12fe:	19 82       	std	Y+1, r1	; 0x01
    1300:	2c c0       	rjmp	.+88     	; 0x135a <Lcd_WriteCustom+0x6a>
	{
		Lcd_Cmd(_LCD_CGRAM_START_ADDRESS +(loc_CharIndx*8));
    1302:	89 81       	ldd	r24, Y+1	; 0x01
    1304:	88 2f       	mov	r24, r24
    1306:	90 e0       	ldi	r25, 0x00	; 0
    1308:	08 96       	adiw	r24, 0x08	; 8
    130a:	88 0f       	add	r24, r24
    130c:	99 1f       	adc	r25, r25
    130e:	88 0f       	add	r24, r24
    1310:	99 1f       	adc	r25, r25
    1312:	88 0f       	add	r24, r24
    1314:	99 1f       	adc	r25, r25
    1316:	0e 94 1d 0d 	call	0x1a3a	; 0x1a3a <Lcd_Cmd>
			for (loc_ByteIndex =0; loc_ByteIndex<NO_CSTOM_CHAR_BYTES;loc_ByteIndex++)
    131a:	1a 82       	std	Y+2, r1	; 0x02
    131c:	18 c0       	rjmp	.+48     	; 0x134e <Lcd_WriteCustom+0x5e>
			{
				Lcd_DisplayChr(customChar[loc_CharIndx][loc_ByteIndex]);
    131e:	89 81       	ldd	r24, Y+1	; 0x01
    1320:	48 2f       	mov	r20, r24
    1322:	50 e0       	ldi	r21, 0x00	; 0
    1324:	8a 81       	ldd	r24, Y+2	; 0x02
    1326:	28 2f       	mov	r18, r24
    1328:	30 e0       	ldi	r19, 0x00	; 0
    132a:	ca 01       	movw	r24, r20
    132c:	88 0f       	add	r24, r24
    132e:	99 1f       	adc	r25, r25
    1330:	88 0f       	add	r24, r24
    1332:	99 1f       	adc	r25, r25
    1334:	88 0f       	add	r24, r24
    1336:	99 1f       	adc	r25, r25
    1338:	82 0f       	add	r24, r18
    133a:	93 1f       	adc	r25, r19
    133c:	fc 01       	movw	r30, r24
    133e:	e1 57       	subi	r30, 0x71	; 113
    1340:	fe 4f       	sbci	r31, 0xFE	; 254
    1342:	80 81       	ld	r24, Z
    1344:	0e 94 43 0d 	call	0x1a86	; 0x1a86 <Lcd_DisplayChr>
	u8 loc_ByteIndex=0;
	u8 loc_CharIndx=0;
	for (loc_CharIndx=0;loc_CharIndx<NO_CSTOM_CHAR;loc_CharIndx++)
	{
		Lcd_Cmd(_LCD_CGRAM_START_ADDRESS +(loc_CharIndx*8));
			for (loc_ByteIndex =0; loc_ByteIndex<NO_CSTOM_CHAR_BYTES;loc_ByteIndex++)
    1348:	8a 81       	ldd	r24, Y+2	; 0x02
    134a:	8f 5f       	subi	r24, 0xFF	; 255
    134c:	8a 83       	std	Y+2, r24	; 0x02
    134e:	8a 81       	ldd	r24, Y+2	; 0x02
    1350:	88 30       	cpi	r24, 0x08	; 8
    1352:	28 f3       	brcs	.-54     	; 0x131e <Lcd_WriteCustom+0x2e>
extern u8 customChar[8][8];
static void Lcd_WriteCustom(void)
{
	u8 loc_ByteIndex=0;
	u8 loc_CharIndx=0;
	for (loc_CharIndx=0;loc_CharIndx<NO_CSTOM_CHAR;loc_CharIndx++)
    1354:	89 81       	ldd	r24, Y+1	; 0x01
    1356:	8f 5f       	subi	r24, 0xFF	; 255
    1358:	89 83       	std	Y+1, r24	; 0x01
    135a:	89 81       	ldd	r24, Y+1	; 0x01
    135c:	88 30       	cpi	r24, 0x08	; 8
    135e:	88 f2       	brcs	.-94     	; 0x1302 <Lcd_WriteCustom+0x12>
			for (loc_ByteIndex =0; loc_ByteIndex<NO_CSTOM_CHAR_BYTES;loc_ByteIndex++)
			{
				Lcd_DisplayChr(customChar[loc_CharIndx][loc_ByteIndex]);
			}
	}
}
    1360:	0f 90       	pop	r0
    1362:	0f 90       	pop	r0
    1364:	cf 91       	pop	r28
    1366:	df 91       	pop	r29
    1368:	08 95       	ret

0000136a <Lcd_Init>:

void Lcd_Init(void)
{
    136a:	df 93       	push	r29
    136c:	cf 93       	push	r28
    136e:	cd b7       	in	r28, 0x3d	; 61
    1370:	de b7       	in	r29, 0x3e	; 62
    1372:	e4 97       	sbiw	r28, 0x34	; 52
    1374:	0f b6       	in	r0, 0x3f	; 63
    1376:	f8 94       	cli
    1378:	de bf       	out	0x3e, r29	; 62
    137a:	0f be       	out	0x3f, r0	; 63
    137c:	cd bf       	out	0x3d, r28	; 61
	/*	Configure Data Lines As Output	*/
	Dio_ConfigChannel(DIO_PORTA,DIO_PIN4,OUTPUT);
    137e:	80 e0       	ldi	r24, 0x00	; 0
    1380:	64 e0       	ldi	r22, 0x04	; 4
    1382:	41 e0       	ldi	r20, 0x01	; 1
    1384:	0e 94 85 18 	call	0x310a	; 0x310a <Dio_ConfigChannel>
	Dio_ConfigChannel(DIO_PORTA,DIO_PIN5,OUTPUT);
    1388:	80 e0       	ldi	r24, 0x00	; 0
    138a:	65 e0       	ldi	r22, 0x05	; 5
    138c:	41 e0       	ldi	r20, 0x01	; 1
    138e:	0e 94 85 18 	call	0x310a	; 0x310a <Dio_ConfigChannel>
	Dio_ConfigChannel(DIO_PORTA,DIO_PIN6,OUTPUT);
    1392:	80 e0       	ldi	r24, 0x00	; 0
    1394:	66 e0       	ldi	r22, 0x06	; 6
    1396:	41 e0       	ldi	r20, 0x01	; 1
    1398:	0e 94 85 18 	call	0x310a	; 0x310a <Dio_ConfigChannel>
	Dio_ConfigChannel(DIO_PORTA,DIO_PIN7,OUTPUT);
    139c:	80 e0       	ldi	r24, 0x00	; 0
    139e:	67 e0       	ldi	r22, 0x07	; 7
    13a0:	41 e0       	ldi	r20, 0x01	; 1
    13a2:	0e 94 85 18 	call	0x310a	; 0x310a <Dio_ConfigChannel>

	/*	Configure Control Lines As Output	*/
	Dio_ConfigChannel(DIO_PORTB,DIO_PIN1,OUTPUT);   /*	RS	*/
    13a6:	81 e0       	ldi	r24, 0x01	; 1
    13a8:	61 e0       	ldi	r22, 0x01	; 1
    13aa:	41 e0       	ldi	r20, 0x01	; 1
    13ac:	0e 94 85 18 	call	0x310a	; 0x310a <Dio_ConfigChannel>
	Dio_ConfigChannel(DIO_PORTB,DIO_PIN2,OUTPUT);	/*	RW	*/
    13b0:	81 e0       	ldi	r24, 0x01	; 1
    13b2:	62 e0       	ldi	r22, 0x02	; 2
    13b4:	41 e0       	ldi	r20, 0x01	; 1
    13b6:	0e 94 85 18 	call	0x310a	; 0x310a <Dio_ConfigChannel>
	Dio_ConfigChannel(DIO_PORTB,DIO_PIN3,OUTPUT);	/*	En	*/
    13ba:	81 e0       	ldi	r24, 0x01	; 1
    13bc:	63 e0       	ldi	r22, 0x03	; 3
    13be:	41 e0       	ldi	r20, 0x01	; 1
    13c0:	0e 94 85 18 	call	0x310a	; 0x310a <Dio_ConfigChannel>

	Dio_WriteChannel(DIO_PORTB, DIO_PIN2, STD_LOW);
    13c4:	81 e0       	ldi	r24, 0x01	; 1
    13c6:	62 e0       	ldi	r22, 0x02	; 2
    13c8:	40 e0       	ldi	r20, 0x00	; 0
    13ca:	0e 94 68 19 	call	0x32d0	; 0x32d0 <Dio_WriteChannel>
    13ce:	80 e0       	ldi	r24, 0x00	; 0
    13d0:	90 e0       	ldi	r25, 0x00	; 0
    13d2:	a0 e7       	ldi	r26, 0x70	; 112
    13d4:	b1 e4       	ldi	r27, 0x41	; 65
    13d6:	89 ab       	std	Y+49, r24	; 0x31
    13d8:	9a ab       	std	Y+50, r25	; 0x32
    13da:	ab ab       	std	Y+51, r26	; 0x33
    13dc:	bc ab       	std	Y+52, r27	; 0x34
 */
void
_delay_ms(double __ms)
{
	uint16_t __ticks;
	double __tmp = ((F_CPU) / 4e3) * __ms;
    13de:	69 a9       	ldd	r22, Y+49	; 0x31
    13e0:	7a a9       	ldd	r23, Y+50	; 0x32
    13e2:	8b a9       	ldd	r24, Y+51	; 0x33
    13e4:	9c a9       	ldd	r25, Y+52	; 0x34
    13e6:	20 e0       	ldi	r18, 0x00	; 0
    13e8:	30 e0       	ldi	r19, 0x00	; 0
    13ea:	4a ef       	ldi	r20, 0xFA	; 250
    13ec:	54 e4       	ldi	r21, 0x44	; 68
    13ee:	0e 94 17 02 	call	0x42e	; 0x42e <__mulsf3>
    13f2:	dc 01       	movw	r26, r24
    13f4:	cb 01       	movw	r24, r22
    13f6:	8d a7       	std	Y+45, r24	; 0x2d
    13f8:	9e a7       	std	Y+46, r25	; 0x2e
    13fa:	af a7       	std	Y+47, r26	; 0x2f
    13fc:	b8 ab       	std	Y+48, r27	; 0x30
	if (__tmp < 1.0)
    13fe:	6d a5       	ldd	r22, Y+45	; 0x2d
    1400:	7e a5       	ldd	r23, Y+46	; 0x2e
    1402:	8f a5       	ldd	r24, Y+47	; 0x2f
    1404:	98 a9       	ldd	r25, Y+48	; 0x30
    1406:	20 e0       	ldi	r18, 0x00	; 0
    1408:	30 e0       	ldi	r19, 0x00	; 0
    140a:	40 e8       	ldi	r20, 0x80	; 128
    140c:	5f e3       	ldi	r21, 0x3F	; 63
    140e:	0e 94 1d 04 	call	0x83a	; 0x83a <__ltsf2>
    1412:	88 23       	and	r24, r24
    1414:	2c f4       	brge	.+10     	; 0x1420 <Lcd_Init+0xb6>
		__ticks = 1;
    1416:	81 e0       	ldi	r24, 0x01	; 1
    1418:	90 e0       	ldi	r25, 0x00	; 0
    141a:	9c a7       	std	Y+44, r25	; 0x2c
    141c:	8b a7       	std	Y+43, r24	; 0x2b
    141e:	3f c0       	rjmp	.+126    	; 0x149e <Lcd_Init+0x134>
	else if (__tmp > 65535)
    1420:	6d a5       	ldd	r22, Y+45	; 0x2d
    1422:	7e a5       	ldd	r23, Y+46	; 0x2e
    1424:	8f a5       	ldd	r24, Y+47	; 0x2f
    1426:	98 a9       	ldd	r25, Y+48	; 0x30
    1428:	20 e0       	ldi	r18, 0x00	; 0
    142a:	3f ef       	ldi	r19, 0xFF	; 255
    142c:	4f e7       	ldi	r20, 0x7F	; 127
    142e:	57 e4       	ldi	r21, 0x47	; 71
    1430:	0e 94 bd 03 	call	0x77a	; 0x77a <__gtsf2>
    1434:	18 16       	cp	r1, r24
    1436:	4c f5       	brge	.+82     	; 0x148a <Lcd_Init+0x120>
	{
		//	__ticks = requested delay in 1/10 ms
		__ticks = (uint16_t) (__ms * 10.0);
    1438:	69 a9       	ldd	r22, Y+49	; 0x31
    143a:	7a a9       	ldd	r23, Y+50	; 0x32
    143c:	8b a9       	ldd	r24, Y+51	; 0x33
    143e:	9c a9       	ldd	r25, Y+52	; 0x34
    1440:	20 e0       	ldi	r18, 0x00	; 0
    1442:	30 e0       	ldi	r19, 0x00	; 0
    1444:	40 e2       	ldi	r20, 0x20	; 32
    1446:	51 e4       	ldi	r21, 0x41	; 65
    1448:	0e 94 17 02 	call	0x42e	; 0x42e <__mulsf3>
    144c:	dc 01       	movw	r26, r24
    144e:	cb 01       	movw	r24, r22
    1450:	bc 01       	movw	r22, r24
    1452:	cd 01       	movw	r24, r26
    1454:	0e 94 41 00 	call	0x82	; 0x82 <__fixunssfsi>
    1458:	dc 01       	movw	r26, r24
    145a:	cb 01       	movw	r24, r22
    145c:	9c a7       	std	Y+44, r25	; 0x2c
    145e:	8b a7       	std	Y+43, r24	; 0x2b
    1460:	0f c0       	rjmp	.+30     	; 0x1480 <Lcd_Init+0x116>
    1462:	88 ec       	ldi	r24, 0xC8	; 200
    1464:	90 e0       	ldi	r25, 0x00	; 0
    1466:	9a a7       	std	Y+42, r25	; 0x2a
    1468:	89 a7       	std	Y+41, r24	; 0x29
    146a:	89 a5       	ldd	r24, Y+41	; 0x29
    146c:	9a a5       	ldd	r25, Y+42	; 0x2a
    146e:	01 97       	sbiw	r24, 0x01	; 1
    1470:	f1 f7       	brne	.-4      	; 0x146e <Lcd_Init+0x104>
    1472:	9a a7       	std	Y+42, r25	; 0x2a
    1474:	89 a7       	std	Y+41, r24	; 0x29
		while(__ticks)
		{
			// wait 1/10 ms
			_delay_loop_2(((F_CPU) / 4e3) / 10);
			__ticks --;
    1476:	8b a5       	ldd	r24, Y+43	; 0x2b
    1478:	9c a5       	ldd	r25, Y+44	; 0x2c
    147a:	01 97       	sbiw	r24, 0x01	; 1
    147c:	9c a7       	std	Y+44, r25	; 0x2c
    147e:	8b a7       	std	Y+43, r24	; 0x2b
		__ticks = 1;
	else if (__tmp > 65535)
	{
		//	__ticks = requested delay in 1/10 ms
		__ticks = (uint16_t) (__ms * 10.0);
		while(__ticks)
    1480:	8b a5       	ldd	r24, Y+43	; 0x2b
    1482:	9c a5       	ldd	r25, Y+44	; 0x2c
    1484:	00 97       	sbiw	r24, 0x00	; 0
    1486:	69 f7       	brne	.-38     	; 0x1462 <Lcd_Init+0xf8>
    1488:	14 c0       	rjmp	.+40     	; 0x14b2 <Lcd_Init+0x148>
			__ticks --;
		}
		return;
	}
	else
		__ticks = (uint16_t)__tmp;
    148a:	6d a5       	ldd	r22, Y+45	; 0x2d
    148c:	7e a5       	ldd	r23, Y+46	; 0x2e
    148e:	8f a5       	ldd	r24, Y+47	; 0x2f
    1490:	98 a9       	ldd	r25, Y+48	; 0x30
    1492:	0e 94 41 00 	call	0x82	; 0x82 <__fixunssfsi>
    1496:	dc 01       	movw	r26, r24
    1498:	cb 01       	movw	r24, r22
    149a:	9c a7       	std	Y+44, r25	; 0x2c
    149c:	8b a7       	std	Y+43, r24	; 0x2b
    149e:	8b a5       	ldd	r24, Y+43	; 0x2b
    14a0:	9c a5       	ldd	r25, Y+44	; 0x2c
    14a2:	98 a7       	std	Y+40, r25	; 0x28
    14a4:	8f a3       	std	Y+39, r24	; 0x27
    14a6:	8f a1       	ldd	r24, Y+39	; 0x27
    14a8:	98 a5       	ldd	r25, Y+40	; 0x28
    14aa:	01 97       	sbiw	r24, 0x01	; 1
    14ac:	f1 f7       	brne	.-4      	; 0x14aa <Lcd_Init+0x140>
    14ae:	98 a7       	std	Y+40, r25	; 0x28
    14b0:	8f a3       	std	Y+39, r24	; 0x27

	_delay_ms(15);

	Lcd_Cmd(3);
    14b2:	83 e0       	ldi	r24, 0x03	; 3
    14b4:	0e 94 1d 0d 	call	0x1a3a	; 0x1a3a <Lcd_Cmd>
    14b8:	80 e0       	ldi	r24, 0x00	; 0
    14ba:	90 e0       	ldi	r25, 0x00	; 0
    14bc:	a0 ea       	ldi	r26, 0xA0	; 160
    14be:	b0 e4       	ldi	r27, 0x40	; 64
    14c0:	8b a3       	std	Y+35, r24	; 0x23
    14c2:	9c a3       	std	Y+36, r25	; 0x24
    14c4:	ad a3       	std	Y+37, r26	; 0x25
    14c6:	be a3       	std	Y+38, r27	; 0x26
 */
void
_delay_ms(double __ms)
{
	uint16_t __ticks;
	double __tmp = ((F_CPU) / 4e3) * __ms;
    14c8:	6b a1       	ldd	r22, Y+35	; 0x23
    14ca:	7c a1       	ldd	r23, Y+36	; 0x24
    14cc:	8d a1       	ldd	r24, Y+37	; 0x25
    14ce:	9e a1       	ldd	r25, Y+38	; 0x26
    14d0:	20 e0       	ldi	r18, 0x00	; 0
    14d2:	30 e0       	ldi	r19, 0x00	; 0
    14d4:	4a ef       	ldi	r20, 0xFA	; 250
    14d6:	54 e4       	ldi	r21, 0x44	; 68
    14d8:	0e 94 17 02 	call	0x42e	; 0x42e <__mulsf3>
    14dc:	dc 01       	movw	r26, r24
    14de:	cb 01       	movw	r24, r22
    14e0:	8f 8f       	std	Y+31, r24	; 0x1f
    14e2:	98 a3       	std	Y+32, r25	; 0x20
    14e4:	a9 a3       	std	Y+33, r26	; 0x21
    14e6:	ba a3       	std	Y+34, r27	; 0x22
	if (__tmp < 1.0)
    14e8:	6f 8d       	ldd	r22, Y+31	; 0x1f
    14ea:	78 a1       	ldd	r23, Y+32	; 0x20
    14ec:	89 a1       	ldd	r24, Y+33	; 0x21
    14ee:	9a a1       	ldd	r25, Y+34	; 0x22
    14f0:	20 e0       	ldi	r18, 0x00	; 0
    14f2:	30 e0       	ldi	r19, 0x00	; 0
    14f4:	40 e8       	ldi	r20, 0x80	; 128
    14f6:	5f e3       	ldi	r21, 0x3F	; 63
    14f8:	0e 94 1d 04 	call	0x83a	; 0x83a <__ltsf2>
    14fc:	88 23       	and	r24, r24
    14fe:	2c f4       	brge	.+10     	; 0x150a <Lcd_Init+0x1a0>
		__ticks = 1;
    1500:	81 e0       	ldi	r24, 0x01	; 1
    1502:	90 e0       	ldi	r25, 0x00	; 0
    1504:	9e 8f       	std	Y+30, r25	; 0x1e
    1506:	8d 8f       	std	Y+29, r24	; 0x1d
    1508:	3f c0       	rjmp	.+126    	; 0x1588 <Lcd_Init+0x21e>
	else if (__tmp > 65535)
    150a:	6f 8d       	ldd	r22, Y+31	; 0x1f
    150c:	78 a1       	ldd	r23, Y+32	; 0x20
    150e:	89 a1       	ldd	r24, Y+33	; 0x21
    1510:	9a a1       	ldd	r25, Y+34	; 0x22
    1512:	20 e0       	ldi	r18, 0x00	; 0
    1514:	3f ef       	ldi	r19, 0xFF	; 255
    1516:	4f e7       	ldi	r20, 0x7F	; 127
    1518:	57 e4       	ldi	r21, 0x47	; 71
    151a:	0e 94 bd 03 	call	0x77a	; 0x77a <__gtsf2>
    151e:	18 16       	cp	r1, r24
    1520:	4c f5       	brge	.+82     	; 0x1574 <Lcd_Init+0x20a>
	{
		//	__ticks = requested delay in 1/10 ms
		__ticks = (uint16_t) (__ms * 10.0);
    1522:	6b a1       	ldd	r22, Y+35	; 0x23
    1524:	7c a1       	ldd	r23, Y+36	; 0x24
    1526:	8d a1       	ldd	r24, Y+37	; 0x25
    1528:	9e a1       	ldd	r25, Y+38	; 0x26
    152a:	20 e0       	ldi	r18, 0x00	; 0
    152c:	30 e0       	ldi	r19, 0x00	; 0
    152e:	40 e2       	ldi	r20, 0x20	; 32
    1530:	51 e4       	ldi	r21, 0x41	; 65
    1532:	0e 94 17 02 	call	0x42e	; 0x42e <__mulsf3>
    1536:	dc 01       	movw	r26, r24
    1538:	cb 01       	movw	r24, r22
    153a:	bc 01       	movw	r22, r24
    153c:	cd 01       	movw	r24, r26
    153e:	0e 94 41 00 	call	0x82	; 0x82 <__fixunssfsi>
    1542:	dc 01       	movw	r26, r24
    1544:	cb 01       	movw	r24, r22
    1546:	9e 8f       	std	Y+30, r25	; 0x1e
    1548:	8d 8f       	std	Y+29, r24	; 0x1d
    154a:	0f c0       	rjmp	.+30     	; 0x156a <Lcd_Init+0x200>
    154c:	88 ec       	ldi	r24, 0xC8	; 200
    154e:	90 e0       	ldi	r25, 0x00	; 0
    1550:	9c 8f       	std	Y+28, r25	; 0x1c
    1552:	8b 8f       	std	Y+27, r24	; 0x1b
    1554:	8b 8d       	ldd	r24, Y+27	; 0x1b
    1556:	9c 8d       	ldd	r25, Y+28	; 0x1c
    1558:	01 97       	sbiw	r24, 0x01	; 1
    155a:	f1 f7       	brne	.-4      	; 0x1558 <Lcd_Init+0x1ee>
    155c:	9c 8f       	std	Y+28, r25	; 0x1c
    155e:	8b 8f       	std	Y+27, r24	; 0x1b
		while(__ticks)
		{
			// wait 1/10 ms
			_delay_loop_2(((F_CPU) / 4e3) / 10);
			__ticks --;
    1560:	8d 8d       	ldd	r24, Y+29	; 0x1d
    1562:	9e 8d       	ldd	r25, Y+30	; 0x1e
    1564:	01 97       	sbiw	r24, 0x01	; 1
    1566:	9e 8f       	std	Y+30, r25	; 0x1e
    1568:	8d 8f       	std	Y+29, r24	; 0x1d
		__ticks = 1;
	else if (__tmp > 65535)
	{
		//	__ticks = requested delay in 1/10 ms
		__ticks = (uint16_t) (__ms * 10.0);
		while(__ticks)
    156a:	8d 8d       	ldd	r24, Y+29	; 0x1d
    156c:	9e 8d       	ldd	r25, Y+30	; 0x1e
    156e:	00 97       	sbiw	r24, 0x00	; 0
    1570:	69 f7       	brne	.-38     	; 0x154c <Lcd_Init+0x1e2>
    1572:	14 c0       	rjmp	.+40     	; 0x159c <Lcd_Init+0x232>
			__ticks --;
		}
		return;
	}
	else
		__ticks = (uint16_t)__tmp;
    1574:	6f 8d       	ldd	r22, Y+31	; 0x1f
    1576:	78 a1       	ldd	r23, Y+32	; 0x20
    1578:	89 a1       	ldd	r24, Y+33	; 0x21
    157a:	9a a1       	ldd	r25, Y+34	; 0x22
    157c:	0e 94 41 00 	call	0x82	; 0x82 <__fixunssfsi>
    1580:	dc 01       	movw	r26, r24
    1582:	cb 01       	movw	r24, r22
    1584:	9e 8f       	std	Y+30, r25	; 0x1e
    1586:	8d 8f       	std	Y+29, r24	; 0x1d
    1588:	8d 8d       	ldd	r24, Y+29	; 0x1d
    158a:	9e 8d       	ldd	r25, Y+30	; 0x1e
    158c:	9a 8f       	std	Y+26, r25	; 0x1a
    158e:	89 8f       	std	Y+25, r24	; 0x19
    1590:	89 8d       	ldd	r24, Y+25	; 0x19
    1592:	9a 8d       	ldd	r25, Y+26	; 0x1a
    1594:	01 97       	sbiw	r24, 0x01	; 1
    1596:	f1 f7       	brne	.-4      	; 0x1594 <Lcd_Init+0x22a>
    1598:	9a 8f       	std	Y+26, r25	; 0x1a
    159a:	89 8f       	std	Y+25, r24	; 0x19
	_delay_ms(5);
	Lcd_Cmd(3);
    159c:	83 e0       	ldi	r24, 0x03	; 3
    159e:	0e 94 1d 0d 	call	0x1a3a	; 0x1a3a <Lcd_Cmd>
    15a2:	80 e0       	ldi	r24, 0x00	; 0
    15a4:	90 e0       	ldi	r25, 0x00	; 0
    15a6:	a8 ec       	ldi	r26, 0xC8	; 200
    15a8:	b2 e4       	ldi	r27, 0x42	; 66
    15aa:	8d 8b       	std	Y+21, r24	; 0x15
    15ac:	9e 8b       	std	Y+22, r25	; 0x16
    15ae:	af 8b       	std	Y+23, r26	; 0x17
    15b0:	b8 8f       	std	Y+24, r27	; 0x18
 */
void
_delay_us(double __us)
{
	uint8_t __ticks;
	double __tmp = ((F_CPU) / 3e6) * __us;
    15b2:	6d 89       	ldd	r22, Y+21	; 0x15
    15b4:	7e 89       	ldd	r23, Y+22	; 0x16
    15b6:	8f 89       	ldd	r24, Y+23	; 0x17
    15b8:	98 8d       	ldd	r25, Y+24	; 0x18
    15ba:	2b ea       	ldi	r18, 0xAB	; 171
    15bc:	3a ea       	ldi	r19, 0xAA	; 170
    15be:	4a e2       	ldi	r20, 0x2A	; 42
    15c0:	50 e4       	ldi	r21, 0x40	; 64
    15c2:	0e 94 17 02 	call	0x42e	; 0x42e <__mulsf3>
    15c6:	dc 01       	movw	r26, r24
    15c8:	cb 01       	movw	r24, r22
    15ca:	89 8b       	std	Y+17, r24	; 0x11
    15cc:	9a 8b       	std	Y+18, r25	; 0x12
    15ce:	ab 8b       	std	Y+19, r26	; 0x13
    15d0:	bc 8b       	std	Y+20, r27	; 0x14
	if (__tmp < 1.0)
    15d2:	69 89       	ldd	r22, Y+17	; 0x11
    15d4:	7a 89       	ldd	r23, Y+18	; 0x12
    15d6:	8b 89       	ldd	r24, Y+19	; 0x13
    15d8:	9c 89       	ldd	r25, Y+20	; 0x14
    15da:	20 e0       	ldi	r18, 0x00	; 0
    15dc:	30 e0       	ldi	r19, 0x00	; 0
    15de:	40 e8       	ldi	r20, 0x80	; 128
    15e0:	5f e3       	ldi	r21, 0x3F	; 63
    15e2:	0e 94 1d 04 	call	0x83a	; 0x83a <__ltsf2>
    15e6:	88 23       	and	r24, r24
    15e8:	1c f4       	brge	.+6      	; 0x15f0 <Lcd_Init+0x286>
		__ticks = 1;
    15ea:	81 e0       	ldi	r24, 0x01	; 1
    15ec:	88 8b       	std	Y+16, r24	; 0x10
    15ee:	91 c0       	rjmp	.+290    	; 0x1712 <Lcd_Init+0x3a8>
	else if (__tmp > 255)
    15f0:	69 89       	ldd	r22, Y+17	; 0x11
    15f2:	7a 89       	ldd	r23, Y+18	; 0x12
    15f4:	8b 89       	ldd	r24, Y+19	; 0x13
    15f6:	9c 89       	ldd	r25, Y+20	; 0x14
    15f8:	20 e0       	ldi	r18, 0x00	; 0
    15fa:	30 e0       	ldi	r19, 0x00	; 0
    15fc:	4f e7       	ldi	r20, 0x7F	; 127
    15fe:	53 e4       	ldi	r21, 0x43	; 67
    1600:	0e 94 bd 03 	call	0x77a	; 0x77a <__gtsf2>
    1604:	18 16       	cp	r1, r24
    1606:	0c f0       	brlt	.+2      	; 0x160a <Lcd_Init+0x2a0>
    1608:	7b c0       	rjmp	.+246    	; 0x1700 <Lcd_Init+0x396>
	{
		_delay_ms(__us / 1000.0);
    160a:	6d 89       	ldd	r22, Y+21	; 0x15
    160c:	7e 89       	ldd	r23, Y+22	; 0x16
    160e:	8f 89       	ldd	r24, Y+23	; 0x17
    1610:	98 8d       	ldd	r25, Y+24	; 0x18
    1612:	20 e0       	ldi	r18, 0x00	; 0
    1614:	30 e0       	ldi	r19, 0x00	; 0
    1616:	4a e7       	ldi	r20, 0x7A	; 122
    1618:	54 e4       	ldi	r21, 0x44	; 68
    161a:	0e 94 11 03 	call	0x622	; 0x622 <__divsf3>
    161e:	dc 01       	movw	r26, r24
    1620:	cb 01       	movw	r24, r22
    1622:	8c 87       	std	Y+12, r24	; 0x0c
    1624:	9d 87       	std	Y+13, r25	; 0x0d
    1626:	ae 87       	std	Y+14, r26	; 0x0e
    1628:	bf 87       	std	Y+15, r27	; 0x0f
 */
void
_delay_ms(double __ms)
{
	uint16_t __ticks;
	double __tmp = ((F_CPU) / 4e3) * __ms;
    162a:	6c 85       	ldd	r22, Y+12	; 0x0c
    162c:	7d 85       	ldd	r23, Y+13	; 0x0d
    162e:	8e 85       	ldd	r24, Y+14	; 0x0e
    1630:	9f 85       	ldd	r25, Y+15	; 0x0f
    1632:	20 e0       	ldi	r18, 0x00	; 0
    1634:	30 e0       	ldi	r19, 0x00	; 0
    1636:	4a ef       	ldi	r20, 0xFA	; 250
    1638:	54 e4       	ldi	r21, 0x44	; 68
    163a:	0e 94 17 02 	call	0x42e	; 0x42e <__mulsf3>
    163e:	dc 01       	movw	r26, r24
    1640:	cb 01       	movw	r24, r22
    1642:	88 87       	std	Y+8, r24	; 0x08
    1644:	99 87       	std	Y+9, r25	; 0x09
    1646:	aa 87       	std	Y+10, r26	; 0x0a
    1648:	bb 87       	std	Y+11, r27	; 0x0b
	if (__tmp < 1.0)
    164a:	68 85       	ldd	r22, Y+8	; 0x08
    164c:	79 85       	ldd	r23, Y+9	; 0x09
    164e:	8a 85       	ldd	r24, Y+10	; 0x0a
    1650:	9b 85       	ldd	r25, Y+11	; 0x0b
    1652:	20 e0       	ldi	r18, 0x00	; 0
    1654:	30 e0       	ldi	r19, 0x00	; 0
    1656:	40 e8       	ldi	r20, 0x80	; 128
    1658:	5f e3       	ldi	r21, 0x3F	; 63
    165a:	0e 94 1d 04 	call	0x83a	; 0x83a <__ltsf2>
    165e:	88 23       	and	r24, r24
    1660:	2c f4       	brge	.+10     	; 0x166c <Lcd_Init+0x302>
		__ticks = 1;
    1662:	81 e0       	ldi	r24, 0x01	; 1
    1664:	90 e0       	ldi	r25, 0x00	; 0
    1666:	9f 83       	std	Y+7, r25	; 0x07
    1668:	8e 83       	std	Y+6, r24	; 0x06
    166a:	3f c0       	rjmp	.+126    	; 0x16ea <Lcd_Init+0x380>
	else if (__tmp > 65535)
    166c:	68 85       	ldd	r22, Y+8	; 0x08
    166e:	79 85       	ldd	r23, Y+9	; 0x09
    1670:	8a 85       	ldd	r24, Y+10	; 0x0a
    1672:	9b 85       	ldd	r25, Y+11	; 0x0b
    1674:	20 e0       	ldi	r18, 0x00	; 0
    1676:	3f ef       	ldi	r19, 0xFF	; 255
    1678:	4f e7       	ldi	r20, 0x7F	; 127
    167a:	57 e4       	ldi	r21, 0x47	; 71
    167c:	0e 94 bd 03 	call	0x77a	; 0x77a <__gtsf2>
    1680:	18 16       	cp	r1, r24
    1682:	4c f5       	brge	.+82     	; 0x16d6 <Lcd_Init+0x36c>
	{
		//	__ticks = requested delay in 1/10 ms
		__ticks = (uint16_t) (__ms * 10.0);
    1684:	6c 85       	ldd	r22, Y+12	; 0x0c
    1686:	7d 85       	ldd	r23, Y+13	; 0x0d
    1688:	8e 85       	ldd	r24, Y+14	; 0x0e
    168a:	9f 85       	ldd	r25, Y+15	; 0x0f
    168c:	20 e0       	ldi	r18, 0x00	; 0
    168e:	30 e0       	ldi	r19, 0x00	; 0
    1690:	40 e2       	ldi	r20, 0x20	; 32
    1692:	51 e4       	ldi	r21, 0x41	; 65
    1694:	0e 94 17 02 	call	0x42e	; 0x42e <__mulsf3>
    1698:	dc 01       	movw	r26, r24
    169a:	cb 01       	movw	r24, r22
    169c:	bc 01       	movw	r22, r24
    169e:	cd 01       	movw	r24, r26
    16a0:	0e 94 41 00 	call	0x82	; 0x82 <__fixunssfsi>
    16a4:	dc 01       	movw	r26, r24
    16a6:	cb 01       	movw	r24, r22
    16a8:	9f 83       	std	Y+7, r25	; 0x07
    16aa:	8e 83       	std	Y+6, r24	; 0x06
    16ac:	0f c0       	rjmp	.+30     	; 0x16cc <Lcd_Init+0x362>
    16ae:	88 ec       	ldi	r24, 0xC8	; 200
    16b0:	90 e0       	ldi	r25, 0x00	; 0
    16b2:	9d 83       	std	Y+5, r25	; 0x05
    16b4:	8c 83       	std	Y+4, r24	; 0x04
    16b6:	8c 81       	ldd	r24, Y+4	; 0x04
    16b8:	9d 81       	ldd	r25, Y+5	; 0x05
    16ba:	01 97       	sbiw	r24, 0x01	; 1
    16bc:	f1 f7       	brne	.-4      	; 0x16ba <Lcd_Init+0x350>
    16be:	9d 83       	std	Y+5, r25	; 0x05
    16c0:	8c 83       	std	Y+4, r24	; 0x04
		while(__ticks)
		{
			// wait 1/10 ms
			_delay_loop_2(((F_CPU) / 4e3) / 10);
			__ticks --;
    16c2:	8e 81       	ldd	r24, Y+6	; 0x06
    16c4:	9f 81       	ldd	r25, Y+7	; 0x07
    16c6:	01 97       	sbiw	r24, 0x01	; 1
    16c8:	9f 83       	std	Y+7, r25	; 0x07
    16ca:	8e 83       	std	Y+6, r24	; 0x06
		__ticks = 1;
	else if (__tmp > 65535)
	{
		//	__ticks = requested delay in 1/10 ms
		__ticks = (uint16_t) (__ms * 10.0);
		while(__ticks)
    16cc:	8e 81       	ldd	r24, Y+6	; 0x06
    16ce:	9f 81       	ldd	r25, Y+7	; 0x07
    16d0:	00 97       	sbiw	r24, 0x00	; 0
    16d2:	69 f7       	brne	.-38     	; 0x16ae <Lcd_Init+0x344>
    16d4:	24 c0       	rjmp	.+72     	; 0x171e <Lcd_Init+0x3b4>
			__ticks --;
		}
		return;
	}
	else
		__ticks = (uint16_t)__tmp;
    16d6:	68 85       	ldd	r22, Y+8	; 0x08
    16d8:	79 85       	ldd	r23, Y+9	; 0x09
    16da:	8a 85       	ldd	r24, Y+10	; 0x0a
    16dc:	9b 85       	ldd	r25, Y+11	; 0x0b
    16de:	0e 94 41 00 	call	0x82	; 0x82 <__fixunssfsi>
    16e2:	dc 01       	movw	r26, r24
    16e4:	cb 01       	movw	r24, r22
    16e6:	9f 83       	std	Y+7, r25	; 0x07
    16e8:	8e 83       	std	Y+6, r24	; 0x06
    16ea:	8e 81       	ldd	r24, Y+6	; 0x06
    16ec:	9f 81       	ldd	r25, Y+7	; 0x07
    16ee:	9b 83       	std	Y+3, r25	; 0x03
    16f0:	8a 83       	std	Y+2, r24	; 0x02
    16f2:	8a 81       	ldd	r24, Y+2	; 0x02
    16f4:	9b 81       	ldd	r25, Y+3	; 0x03
    16f6:	01 97       	sbiw	r24, 0x01	; 1
    16f8:	f1 f7       	brne	.-4      	; 0x16f6 <Lcd_Init+0x38c>
    16fa:	9b 83       	std	Y+3, r25	; 0x03
    16fc:	8a 83       	std	Y+2, r24	; 0x02
    16fe:	0f c0       	rjmp	.+30     	; 0x171e <Lcd_Init+0x3b4>
	{
		_delay_ms(__us / 1000.0);
		return;
	}
	else
		__ticks = (uint8_t)__tmp;
    1700:	69 89       	ldd	r22, Y+17	; 0x11
    1702:	7a 89       	ldd	r23, Y+18	; 0x12
    1704:	8b 89       	ldd	r24, Y+19	; 0x13
    1706:	9c 89       	ldd	r25, Y+20	; 0x14
    1708:	0e 94 41 00 	call	0x82	; 0x82 <__fixunssfsi>
    170c:	dc 01       	movw	r26, r24
    170e:	cb 01       	movw	r24, r22
    1710:	88 8b       	std	Y+16, r24	; 0x10
    1712:	88 89       	ldd	r24, Y+16	; 0x10
    1714:	89 83       	std	Y+1, r24	; 0x01
    can be achieved.
*/
void
_delay_loop_1(uint8_t __count)
{
	__asm__ volatile (
    1716:	89 81       	ldd	r24, Y+1	; 0x01
    1718:	8a 95       	dec	r24
    171a:	f1 f7       	brne	.-4      	; 0x1718 <Lcd_Init+0x3ae>
    171c:	89 83       	std	Y+1, r24	; 0x01
	_delay_us(100);
	Lcd_Cmd(3);
    171e:	83 e0       	ldi	r24, 0x03	; 3
    1720:	0e 94 1d 0d 	call	0x1a3a	; 0x1a3a <Lcd_Cmd>
	Lcd_Cmd(2);
    1724:	82 e0       	ldi	r24, 0x02	; 2
    1726:	0e 94 1d 0d 	call	0x1a3a	; 0x1a3a <Lcd_Cmd>
	Lcd_Cmd(_LCD_4BIT_MODE);
    172a:	88 e2       	ldi	r24, 0x28	; 40
    172c:	0e 94 1d 0d 	call	0x1a3a	; 0x1a3a <Lcd_Cmd>
	Lcd_WriteCustom();
    1730:	0e 94 78 09 	call	0x12f0	; 0x12f0 <Lcd_WriteCustom>
	Lcd_Goto_Row_Column(0,0);
    1734:	80 e0       	ldi	r24, 0x00	; 0
    1736:	60 e0       	ldi	r22, 0x00	; 0
    1738:	0e 94 6c 0d 	call	0x1ad8	; 0x1ad8 <Lcd_Goto_Row_Column>
	Lcd_Cmd(_LCD_CURSOR_OFF);
    173c:	8c e0       	ldi	r24, 0x0C	; 12
    173e:	0e 94 1d 0d 	call	0x1a3a	; 0x1a3a <Lcd_Cmd>
}
    1742:	e4 96       	adiw	r28, 0x34	; 52
    1744:	0f b6       	in	r0, 0x3f	; 63
    1746:	f8 94       	cli
    1748:	de bf       	out	0x3e, r29	; 62
    174a:	0f be       	out	0x3f, r0	; 63
    174c:	cd bf       	out	0x3d, r28	; 61
    174e:	cf 91       	pop	r28
    1750:	df 91       	pop	r29
    1752:	08 95       	ret

00001754 <Enable_Pulse>:
static void Enable_Pulse(void)
{
    1754:	df 93       	push	r29
    1756:	cf 93       	push	r28
    1758:	cd b7       	in	r28, 0x3d	; 61
    175a:	de b7       	in	r29, 0x3e	; 62
    175c:	a6 97       	sbiw	r28, 0x26	; 38
    175e:	0f b6       	in	r0, 0x3f	; 63
    1760:	f8 94       	cli
    1762:	de bf       	out	0x3e, r29	; 62
    1764:	0f be       	out	0x3f, r0	; 63
    1766:	cd bf       	out	0x3d, r28	; 61
	Dio_WriteChannel(DIO_PORTB, DIO_PIN3, STD_HIGH);
    1768:	81 e0       	ldi	r24, 0x01	; 1
    176a:	63 e0       	ldi	r22, 0x03	; 3
    176c:	41 e0       	ldi	r20, 0x01	; 1
    176e:	0e 94 68 19 	call	0x32d0	; 0x32d0 <Dio_WriteChannel>
    1772:	80 e0       	ldi	r24, 0x00	; 0
    1774:	90 e0       	ldi	r25, 0x00	; 0
    1776:	a0 e8       	ldi	r26, 0x80	; 128
    1778:	bf e3       	ldi	r27, 0x3F	; 63
    177a:	8b a3       	std	Y+35, r24	; 0x23
    177c:	9c a3       	std	Y+36, r25	; 0x24
    177e:	ad a3       	std	Y+37, r26	; 0x25
    1780:	be a3       	std	Y+38, r27	; 0x26
 */
void
_delay_us(double __us)
{
	uint8_t __ticks;
	double __tmp = ((F_CPU) / 3e6) * __us;
    1782:	6b a1       	ldd	r22, Y+35	; 0x23
    1784:	7c a1       	ldd	r23, Y+36	; 0x24
    1786:	8d a1       	ldd	r24, Y+37	; 0x25
    1788:	9e a1       	ldd	r25, Y+38	; 0x26
    178a:	2b ea       	ldi	r18, 0xAB	; 171
    178c:	3a ea       	ldi	r19, 0xAA	; 170
    178e:	4a e2       	ldi	r20, 0x2A	; 42
    1790:	50 e4       	ldi	r21, 0x40	; 64
    1792:	0e 94 17 02 	call	0x42e	; 0x42e <__mulsf3>
    1796:	dc 01       	movw	r26, r24
    1798:	cb 01       	movw	r24, r22
    179a:	8f 8f       	std	Y+31, r24	; 0x1f
    179c:	98 a3       	std	Y+32, r25	; 0x20
    179e:	a9 a3       	std	Y+33, r26	; 0x21
    17a0:	ba a3       	std	Y+34, r27	; 0x22
	if (__tmp < 1.0)
    17a2:	6f 8d       	ldd	r22, Y+31	; 0x1f
    17a4:	78 a1       	ldd	r23, Y+32	; 0x20
    17a6:	89 a1       	ldd	r24, Y+33	; 0x21
    17a8:	9a a1       	ldd	r25, Y+34	; 0x22
    17aa:	20 e0       	ldi	r18, 0x00	; 0
    17ac:	30 e0       	ldi	r19, 0x00	; 0
    17ae:	40 e8       	ldi	r20, 0x80	; 128
    17b0:	5f e3       	ldi	r21, 0x3F	; 63
    17b2:	0e 94 1d 04 	call	0x83a	; 0x83a <__ltsf2>
    17b6:	88 23       	and	r24, r24
    17b8:	1c f4       	brge	.+6      	; 0x17c0 <Enable_Pulse+0x6c>
		__ticks = 1;
    17ba:	81 e0       	ldi	r24, 0x01	; 1
    17bc:	8e 8f       	std	Y+30, r24	; 0x1e
    17be:	91 c0       	rjmp	.+290    	; 0x18e2 <Enable_Pulse+0x18e>
	else if (__tmp > 255)
    17c0:	6f 8d       	ldd	r22, Y+31	; 0x1f
    17c2:	78 a1       	ldd	r23, Y+32	; 0x20
    17c4:	89 a1       	ldd	r24, Y+33	; 0x21
    17c6:	9a a1       	ldd	r25, Y+34	; 0x22
    17c8:	20 e0       	ldi	r18, 0x00	; 0
    17ca:	30 e0       	ldi	r19, 0x00	; 0
    17cc:	4f e7       	ldi	r20, 0x7F	; 127
    17ce:	53 e4       	ldi	r21, 0x43	; 67
    17d0:	0e 94 bd 03 	call	0x77a	; 0x77a <__gtsf2>
    17d4:	18 16       	cp	r1, r24
    17d6:	0c f0       	brlt	.+2      	; 0x17da <Enable_Pulse+0x86>
    17d8:	7b c0       	rjmp	.+246    	; 0x18d0 <Enable_Pulse+0x17c>
	{
		_delay_ms(__us / 1000.0);
    17da:	6b a1       	ldd	r22, Y+35	; 0x23
    17dc:	7c a1       	ldd	r23, Y+36	; 0x24
    17de:	8d a1       	ldd	r24, Y+37	; 0x25
    17e0:	9e a1       	ldd	r25, Y+38	; 0x26
    17e2:	20 e0       	ldi	r18, 0x00	; 0
    17e4:	30 e0       	ldi	r19, 0x00	; 0
    17e6:	4a e7       	ldi	r20, 0x7A	; 122
    17e8:	54 e4       	ldi	r21, 0x44	; 68
    17ea:	0e 94 11 03 	call	0x622	; 0x622 <__divsf3>
    17ee:	dc 01       	movw	r26, r24
    17f0:	cb 01       	movw	r24, r22
    17f2:	8a 8f       	std	Y+26, r24	; 0x1a
    17f4:	9b 8f       	std	Y+27, r25	; 0x1b
    17f6:	ac 8f       	std	Y+28, r26	; 0x1c
    17f8:	bd 8f       	std	Y+29, r27	; 0x1d
 */
void
_delay_ms(double __ms)
{
	uint16_t __ticks;
	double __tmp = ((F_CPU) / 4e3) * __ms;
    17fa:	6a 8d       	ldd	r22, Y+26	; 0x1a
    17fc:	7b 8d       	ldd	r23, Y+27	; 0x1b
    17fe:	8c 8d       	ldd	r24, Y+28	; 0x1c
    1800:	9d 8d       	ldd	r25, Y+29	; 0x1d
    1802:	20 e0       	ldi	r18, 0x00	; 0
    1804:	30 e0       	ldi	r19, 0x00	; 0
    1806:	4a ef       	ldi	r20, 0xFA	; 250
    1808:	54 e4       	ldi	r21, 0x44	; 68
    180a:	0e 94 17 02 	call	0x42e	; 0x42e <__mulsf3>
    180e:	dc 01       	movw	r26, r24
    1810:	cb 01       	movw	r24, r22
    1812:	8e 8b       	std	Y+22, r24	; 0x16
    1814:	9f 8b       	std	Y+23, r25	; 0x17
    1816:	a8 8f       	std	Y+24, r26	; 0x18
    1818:	b9 8f       	std	Y+25, r27	; 0x19
	if (__tmp < 1.0)
    181a:	6e 89       	ldd	r22, Y+22	; 0x16
    181c:	7f 89       	ldd	r23, Y+23	; 0x17
    181e:	88 8d       	ldd	r24, Y+24	; 0x18
    1820:	99 8d       	ldd	r25, Y+25	; 0x19
    1822:	20 e0       	ldi	r18, 0x00	; 0
    1824:	30 e0       	ldi	r19, 0x00	; 0
    1826:	40 e8       	ldi	r20, 0x80	; 128
    1828:	5f e3       	ldi	r21, 0x3F	; 63
    182a:	0e 94 1d 04 	call	0x83a	; 0x83a <__ltsf2>
    182e:	88 23       	and	r24, r24
    1830:	2c f4       	brge	.+10     	; 0x183c <Enable_Pulse+0xe8>
		__ticks = 1;
    1832:	81 e0       	ldi	r24, 0x01	; 1
    1834:	90 e0       	ldi	r25, 0x00	; 0
    1836:	9d 8b       	std	Y+21, r25	; 0x15
    1838:	8c 8b       	std	Y+20, r24	; 0x14
    183a:	3f c0       	rjmp	.+126    	; 0x18ba <Enable_Pulse+0x166>
	else if (__tmp > 65535)
    183c:	6e 89       	ldd	r22, Y+22	; 0x16
    183e:	7f 89       	ldd	r23, Y+23	; 0x17
    1840:	88 8d       	ldd	r24, Y+24	; 0x18
    1842:	99 8d       	ldd	r25, Y+25	; 0x19
    1844:	20 e0       	ldi	r18, 0x00	; 0
    1846:	3f ef       	ldi	r19, 0xFF	; 255
    1848:	4f e7       	ldi	r20, 0x7F	; 127
    184a:	57 e4       	ldi	r21, 0x47	; 71
    184c:	0e 94 bd 03 	call	0x77a	; 0x77a <__gtsf2>
    1850:	18 16       	cp	r1, r24
    1852:	4c f5       	brge	.+82     	; 0x18a6 <Enable_Pulse+0x152>
	{
		//	__ticks = requested delay in 1/10 ms
		__ticks = (uint16_t) (__ms * 10.0);
    1854:	6a 8d       	ldd	r22, Y+26	; 0x1a
    1856:	7b 8d       	ldd	r23, Y+27	; 0x1b
    1858:	8c 8d       	ldd	r24, Y+28	; 0x1c
    185a:	9d 8d       	ldd	r25, Y+29	; 0x1d
    185c:	20 e0       	ldi	r18, 0x00	; 0
    185e:	30 e0       	ldi	r19, 0x00	; 0
    1860:	40 e2       	ldi	r20, 0x20	; 32
    1862:	51 e4       	ldi	r21, 0x41	; 65
    1864:	0e 94 17 02 	call	0x42e	; 0x42e <__mulsf3>
    1868:	dc 01       	movw	r26, r24
    186a:	cb 01       	movw	r24, r22
    186c:	bc 01       	movw	r22, r24
    186e:	cd 01       	movw	r24, r26
    1870:	0e 94 41 00 	call	0x82	; 0x82 <__fixunssfsi>
    1874:	dc 01       	movw	r26, r24
    1876:	cb 01       	movw	r24, r22
    1878:	9d 8b       	std	Y+21, r25	; 0x15
    187a:	8c 8b       	std	Y+20, r24	; 0x14
    187c:	0f c0       	rjmp	.+30     	; 0x189c <Enable_Pulse+0x148>
    187e:	88 ec       	ldi	r24, 0xC8	; 200
    1880:	90 e0       	ldi	r25, 0x00	; 0
    1882:	9b 8b       	std	Y+19, r25	; 0x13
    1884:	8a 8b       	std	Y+18, r24	; 0x12
    milliseconds can be achieved.
 */
void
_delay_loop_2(uint16_t __count)
{
	__asm__ volatile (
    1886:	8a 89       	ldd	r24, Y+18	; 0x12
    1888:	9b 89       	ldd	r25, Y+19	; 0x13
    188a:	01 97       	sbiw	r24, 0x01	; 1
    188c:	f1 f7       	brne	.-4      	; 0x188a <Enable_Pulse+0x136>
    188e:	9b 8b       	std	Y+19, r25	; 0x13
    1890:	8a 8b       	std	Y+18, r24	; 0x12
		while(__ticks)
		{
			// wait 1/10 ms
			_delay_loop_2(((F_CPU) / 4e3) / 10);
			__ticks --;
    1892:	8c 89       	ldd	r24, Y+20	; 0x14
    1894:	9d 89       	ldd	r25, Y+21	; 0x15
    1896:	01 97       	sbiw	r24, 0x01	; 1
    1898:	9d 8b       	std	Y+21, r25	; 0x15
    189a:	8c 8b       	std	Y+20, r24	; 0x14
		__ticks = 1;
	else if (__tmp > 65535)
	{
		//	__ticks = requested delay in 1/10 ms
		__ticks = (uint16_t) (__ms * 10.0);
		while(__ticks)
    189c:	8c 89       	ldd	r24, Y+20	; 0x14
    189e:	9d 89       	ldd	r25, Y+21	; 0x15
    18a0:	00 97       	sbiw	r24, 0x00	; 0
    18a2:	69 f7       	brne	.-38     	; 0x187e <Enable_Pulse+0x12a>
    18a4:	24 c0       	rjmp	.+72     	; 0x18ee <Enable_Pulse+0x19a>
			__ticks --;
		}
		return;
	}
	else
		__ticks = (uint16_t)__tmp;
    18a6:	6e 89       	ldd	r22, Y+22	; 0x16
    18a8:	7f 89       	ldd	r23, Y+23	; 0x17
    18aa:	88 8d       	ldd	r24, Y+24	; 0x18
    18ac:	99 8d       	ldd	r25, Y+25	; 0x19
    18ae:	0e 94 41 00 	call	0x82	; 0x82 <__fixunssfsi>
    18b2:	dc 01       	movw	r26, r24
    18b4:	cb 01       	movw	r24, r22
    18b6:	9d 8b       	std	Y+21, r25	; 0x15
    18b8:	8c 8b       	std	Y+20, r24	; 0x14
    18ba:	8c 89       	ldd	r24, Y+20	; 0x14
    18bc:	9d 89       	ldd	r25, Y+21	; 0x15
    18be:	99 8b       	std	Y+17, r25	; 0x11
    18c0:	88 8b       	std	Y+16, r24	; 0x10
    18c2:	88 89       	ldd	r24, Y+16	; 0x10
    18c4:	99 89       	ldd	r25, Y+17	; 0x11
    18c6:	01 97       	sbiw	r24, 0x01	; 1
    18c8:	f1 f7       	brne	.-4      	; 0x18c6 <Enable_Pulse+0x172>
    18ca:	99 8b       	std	Y+17, r25	; 0x11
    18cc:	88 8b       	std	Y+16, r24	; 0x10
    18ce:	0f c0       	rjmp	.+30     	; 0x18ee <Enable_Pulse+0x19a>
	{
		_delay_ms(__us / 1000.0);
		return;
	}
	else
		__ticks = (uint8_t)__tmp;
    18d0:	6f 8d       	ldd	r22, Y+31	; 0x1f
    18d2:	78 a1       	ldd	r23, Y+32	; 0x20
    18d4:	89 a1       	ldd	r24, Y+33	; 0x21
    18d6:	9a a1       	ldd	r25, Y+34	; 0x22
    18d8:	0e 94 41 00 	call	0x82	; 0x82 <__fixunssfsi>
    18dc:	dc 01       	movw	r26, r24
    18de:	cb 01       	movw	r24, r22
    18e0:	8e 8f       	std	Y+30, r24	; 0x1e
    18e2:	8e 8d       	ldd	r24, Y+30	; 0x1e
    18e4:	8f 87       	std	Y+15, r24	; 0x0f
    can be achieved.
*/
void
_delay_loop_1(uint8_t __count)
{
	__asm__ volatile (
    18e6:	8f 85       	ldd	r24, Y+15	; 0x0f
    18e8:	8a 95       	dec	r24
    18ea:	f1 f7       	brne	.-4      	; 0x18e8 <Enable_Pulse+0x194>
    18ec:	8f 87       	std	Y+15, r24	; 0x0f
	_delay_us(1);
	Dio_WriteChannel(DIO_PORTB, DIO_PIN3, STD_LOW);
    18ee:	81 e0       	ldi	r24, 0x01	; 1
    18f0:	63 e0       	ldi	r22, 0x03	; 3
    18f2:	40 e0       	ldi	r20, 0x00	; 0
    18f4:	0e 94 68 19 	call	0x32d0	; 0x32d0 <Dio_WriteChannel>
    18f8:	80 e0       	ldi	r24, 0x00	; 0
    18fa:	90 e0       	ldi	r25, 0x00	; 0
    18fc:	a0 e0       	ldi	r26, 0x00	; 0
    18fe:	b0 e4       	ldi	r27, 0x40	; 64
    1900:	8b 87       	std	Y+11, r24	; 0x0b
    1902:	9c 87       	std	Y+12, r25	; 0x0c
    1904:	ad 87       	std	Y+13, r26	; 0x0d
    1906:	be 87       	std	Y+14, r27	; 0x0e
 */
void
_delay_ms(double __ms)
{
	uint16_t __ticks;
	double __tmp = ((F_CPU) / 4e3) * __ms;
    1908:	6b 85       	ldd	r22, Y+11	; 0x0b
    190a:	7c 85       	ldd	r23, Y+12	; 0x0c
    190c:	8d 85       	ldd	r24, Y+13	; 0x0d
    190e:	9e 85       	ldd	r25, Y+14	; 0x0e
    1910:	20 e0       	ldi	r18, 0x00	; 0
    1912:	30 e0       	ldi	r19, 0x00	; 0
    1914:	4a ef       	ldi	r20, 0xFA	; 250
    1916:	54 e4       	ldi	r21, 0x44	; 68
    1918:	0e 94 17 02 	call	0x42e	; 0x42e <__mulsf3>
    191c:	dc 01       	movw	r26, r24
    191e:	cb 01       	movw	r24, r22
    1920:	8f 83       	std	Y+7, r24	; 0x07
    1922:	98 87       	std	Y+8, r25	; 0x08
    1924:	a9 87       	std	Y+9, r26	; 0x09
    1926:	ba 87       	std	Y+10, r27	; 0x0a
	if (__tmp < 1.0)
    1928:	6f 81       	ldd	r22, Y+7	; 0x07
    192a:	78 85       	ldd	r23, Y+8	; 0x08
    192c:	89 85       	ldd	r24, Y+9	; 0x09
    192e:	9a 85       	ldd	r25, Y+10	; 0x0a
    1930:	20 e0       	ldi	r18, 0x00	; 0
    1932:	30 e0       	ldi	r19, 0x00	; 0
    1934:	40 e8       	ldi	r20, 0x80	; 128
    1936:	5f e3       	ldi	r21, 0x3F	; 63
    1938:	0e 94 1d 04 	call	0x83a	; 0x83a <__ltsf2>
    193c:	88 23       	and	r24, r24
    193e:	2c f4       	brge	.+10     	; 0x194a <Enable_Pulse+0x1f6>
		__ticks = 1;
    1940:	81 e0       	ldi	r24, 0x01	; 1
    1942:	90 e0       	ldi	r25, 0x00	; 0
    1944:	9e 83       	std	Y+6, r25	; 0x06
    1946:	8d 83       	std	Y+5, r24	; 0x05
    1948:	3f c0       	rjmp	.+126    	; 0x19c8 <Enable_Pulse+0x274>
	else if (__tmp > 65535)
    194a:	6f 81       	ldd	r22, Y+7	; 0x07
    194c:	78 85       	ldd	r23, Y+8	; 0x08
    194e:	89 85       	ldd	r24, Y+9	; 0x09
    1950:	9a 85       	ldd	r25, Y+10	; 0x0a
    1952:	20 e0       	ldi	r18, 0x00	; 0
    1954:	3f ef       	ldi	r19, 0xFF	; 255
    1956:	4f e7       	ldi	r20, 0x7F	; 127
    1958:	57 e4       	ldi	r21, 0x47	; 71
    195a:	0e 94 bd 03 	call	0x77a	; 0x77a <__gtsf2>
    195e:	18 16       	cp	r1, r24
    1960:	4c f5       	brge	.+82     	; 0x19b4 <Enable_Pulse+0x260>
	{
		//	__ticks = requested delay in 1/10 ms
		__ticks = (uint16_t) (__ms * 10.0);
    1962:	6b 85       	ldd	r22, Y+11	; 0x0b
    1964:	7c 85       	ldd	r23, Y+12	; 0x0c
    1966:	8d 85       	ldd	r24, Y+13	; 0x0d
    1968:	9e 85       	ldd	r25, Y+14	; 0x0e
    196a:	20 e0       	ldi	r18, 0x00	; 0
    196c:	30 e0       	ldi	r19, 0x00	; 0
    196e:	40 e2       	ldi	r20, 0x20	; 32
    1970:	51 e4       	ldi	r21, 0x41	; 65
    1972:	0e 94 17 02 	call	0x42e	; 0x42e <__mulsf3>
    1976:	dc 01       	movw	r26, r24
    1978:	cb 01       	movw	r24, r22
    197a:	bc 01       	movw	r22, r24
    197c:	cd 01       	movw	r24, r26
    197e:	0e 94 41 00 	call	0x82	; 0x82 <__fixunssfsi>
    1982:	dc 01       	movw	r26, r24
    1984:	cb 01       	movw	r24, r22
    1986:	9e 83       	std	Y+6, r25	; 0x06
    1988:	8d 83       	std	Y+5, r24	; 0x05
    198a:	0f c0       	rjmp	.+30     	; 0x19aa <Enable_Pulse+0x256>
    198c:	88 ec       	ldi	r24, 0xC8	; 200
    198e:	90 e0       	ldi	r25, 0x00	; 0
    1990:	9c 83       	std	Y+4, r25	; 0x04
    1992:	8b 83       	std	Y+3, r24	; 0x03
    milliseconds can be achieved.
 */
void
_delay_loop_2(uint16_t __count)
{
	__asm__ volatile (
    1994:	8b 81       	ldd	r24, Y+3	; 0x03
    1996:	9c 81       	ldd	r25, Y+4	; 0x04
    1998:	01 97       	sbiw	r24, 0x01	; 1
    199a:	f1 f7       	brne	.-4      	; 0x1998 <Enable_Pulse+0x244>
    199c:	9c 83       	std	Y+4, r25	; 0x04
    199e:	8b 83       	std	Y+3, r24	; 0x03
		while(__ticks)
		{
			// wait 1/10 ms
			_delay_loop_2(((F_CPU) / 4e3) / 10);
			__ticks --;
    19a0:	8d 81       	ldd	r24, Y+5	; 0x05
    19a2:	9e 81       	ldd	r25, Y+6	; 0x06
    19a4:	01 97       	sbiw	r24, 0x01	; 1
    19a6:	9e 83       	std	Y+6, r25	; 0x06
    19a8:	8d 83       	std	Y+5, r24	; 0x05
		__ticks = 1;
	else if (__tmp > 65535)
	{
		//	__ticks = requested delay in 1/10 ms
		__ticks = (uint16_t) (__ms * 10.0);
		while(__ticks)
    19aa:	8d 81       	ldd	r24, Y+5	; 0x05
    19ac:	9e 81       	ldd	r25, Y+6	; 0x06
    19ae:	00 97       	sbiw	r24, 0x00	; 0
    19b0:	69 f7       	brne	.-38     	; 0x198c <Enable_Pulse+0x238>
    19b2:	14 c0       	rjmp	.+40     	; 0x19dc <Enable_Pulse+0x288>
			__ticks --;
		}
		return;
	}
	else
		__ticks = (uint16_t)__tmp;
    19b4:	6f 81       	ldd	r22, Y+7	; 0x07
    19b6:	78 85       	ldd	r23, Y+8	; 0x08
    19b8:	89 85       	ldd	r24, Y+9	; 0x09
    19ba:	9a 85       	ldd	r25, Y+10	; 0x0a
    19bc:	0e 94 41 00 	call	0x82	; 0x82 <__fixunssfsi>
    19c0:	dc 01       	movw	r26, r24
    19c2:	cb 01       	movw	r24, r22
    19c4:	9e 83       	std	Y+6, r25	; 0x06
    19c6:	8d 83       	std	Y+5, r24	; 0x05
    19c8:	8d 81       	ldd	r24, Y+5	; 0x05
    19ca:	9e 81       	ldd	r25, Y+6	; 0x06
    19cc:	9a 83       	std	Y+2, r25	; 0x02
    19ce:	89 83       	std	Y+1, r24	; 0x01
    19d0:	89 81       	ldd	r24, Y+1	; 0x01
    19d2:	9a 81       	ldd	r25, Y+2	; 0x02
    19d4:	01 97       	sbiw	r24, 0x01	; 1
    19d6:	f1 f7       	brne	.-4      	; 0x19d4 <Enable_Pulse+0x280>
    19d8:	9a 83       	std	Y+2, r25	; 0x02
    19da:	89 83       	std	Y+1, r24	; 0x01
	_delay_ms(2);
}
    19dc:	a6 96       	adiw	r28, 0x26	; 38
    19de:	0f b6       	in	r0, 0x3f	; 63
    19e0:	f8 94       	cli
    19e2:	de bf       	out	0x3e, r29	; 62
    19e4:	0f be       	out	0x3f, r0	; 63
    19e6:	cd bf       	out	0x3d, r28	; 61
    19e8:	cf 91       	pop	r28
    19ea:	df 91       	pop	r29
    19ec:	08 95       	ret

000019ee <Lcd_Data>:

static void Lcd_Data(u8 data) /*	RS-> 1	*/
{
    19ee:	df 93       	push	r29
    19f0:	cf 93       	push	r28
    19f2:	00 d0       	rcall	.+0      	; 0x19f4 <Lcd_Data+0x6>
    19f4:	0f 92       	push	r0
    19f6:	cd b7       	in	r28, 0x3d	; 61
    19f8:	de b7       	in	r29, 0x3e	; 62
    19fa:	8b 83       	std	Y+3, r24	; 0x03
	u8 High_Nibble = data;    /*	MSB	*/
    19fc:	8b 81       	ldd	r24, Y+3	; 0x03
    19fe:	8a 83       	std	Y+2, r24	; 0x02
	u8 Low_Nibble = data<<4;		/*	LSB	*/
    1a00:	8b 81       	ldd	r24, Y+3	; 0x03
    1a02:	82 95       	swap	r24
    1a04:	80 7f       	andi	r24, 0xF0	; 240
    1a06:	89 83       	std	Y+1, r24	; 0x01
	Dio_WriteChannel(DIO_PORTB, DIO_PIN1, STD_HIGH);   /* Data Mode */
    1a08:	81 e0       	ldi	r24, 0x01	; 1
    1a0a:	61 e0       	ldi	r22, 0x01	; 1
    1a0c:	41 e0       	ldi	r20, 0x01	; 1
    1a0e:	0e 94 68 19 	call	0x32d0	; 0x32d0 <Dio_WriteChannel>
	Dio_WriteGroup(DIO_PORTA,LCD_MASK,High_Nibble);
    1a12:	80 e0       	ldi	r24, 0x00	; 0
    1a14:	60 ef       	ldi	r22, 0xF0	; 240
    1a16:	4a 81       	ldd	r20, Y+2	; 0x02
    1a18:	0e 94 4b 1a 	call	0x3496	; 0x3496 <Dio_WriteGroup>
	Enable_Pulse();
    1a1c:	0e 94 aa 0b 	call	0x1754	; 0x1754 <Enable_Pulse>

	Dio_WriteGroup(DIO_PORTA,LCD_MASK,Low_Nibble);
    1a20:	80 e0       	ldi	r24, 0x00	; 0
    1a22:	60 ef       	ldi	r22, 0xF0	; 240
    1a24:	49 81       	ldd	r20, Y+1	; 0x01
    1a26:	0e 94 4b 1a 	call	0x3496	; 0x3496 <Dio_WriteGroup>
	Enable_Pulse();
    1a2a:	0e 94 aa 0b 	call	0x1754	; 0x1754 <Enable_Pulse>
}
    1a2e:	0f 90       	pop	r0
    1a30:	0f 90       	pop	r0
    1a32:	0f 90       	pop	r0
    1a34:	cf 91       	pop	r28
    1a36:	df 91       	pop	r29
    1a38:	08 95       	ret

00001a3a <Lcd_Cmd>:

void Lcd_Cmd(lcd_Cmd_Type cmd)/*	RS-> 0	*/
{
    1a3a:	df 93       	push	r29
    1a3c:	cf 93       	push	r28
    1a3e:	00 d0       	rcall	.+0      	; 0x1a40 <Lcd_Cmd+0x6>
    1a40:	0f 92       	push	r0
    1a42:	cd b7       	in	r28, 0x3d	; 61
    1a44:	de b7       	in	r29, 0x3e	; 62
    1a46:	8b 83       	std	Y+3, r24	; 0x03
	u8 High_Nibble = cmd;    /*	MSB	*/
    1a48:	8b 81       	ldd	r24, Y+3	; 0x03
    1a4a:	8a 83       	std	Y+2, r24	; 0x02
	u8 Low_Nibble = cmd<<4;		/*	LSB	*/
    1a4c:	8b 81       	ldd	r24, Y+3	; 0x03
    1a4e:	82 95       	swap	r24
    1a50:	80 7f       	andi	r24, 0xF0	; 240
    1a52:	89 83       	std	Y+1, r24	; 0x01
	Dio_WriteChannel(DIO_PORTB, DIO_PIN1, STD_LOW);   /* Command Mode */
    1a54:	81 e0       	ldi	r24, 0x01	; 1
    1a56:	61 e0       	ldi	r22, 0x01	; 1
    1a58:	40 e0       	ldi	r20, 0x00	; 0
    1a5a:	0e 94 68 19 	call	0x32d0	; 0x32d0 <Dio_WriteChannel>
	Dio_WriteGroup(DIO_PORTA,LCD_MASK,High_Nibble);
    1a5e:	80 e0       	ldi	r24, 0x00	; 0
    1a60:	60 ef       	ldi	r22, 0xF0	; 240
    1a62:	4a 81       	ldd	r20, Y+2	; 0x02
    1a64:	0e 94 4b 1a 	call	0x3496	; 0x3496 <Dio_WriteGroup>
	Enable_Pulse();
    1a68:	0e 94 aa 0b 	call	0x1754	; 0x1754 <Enable_Pulse>

	Dio_WriteGroup(DIO_PORTA,LCD_MASK,Low_Nibble);
    1a6c:	80 e0       	ldi	r24, 0x00	; 0
    1a6e:	60 ef       	ldi	r22, 0xF0	; 240
    1a70:	49 81       	ldd	r20, Y+1	; 0x01
    1a72:	0e 94 4b 1a 	call	0x3496	; 0x3496 <Dio_WriteGroup>
	Enable_Pulse();
    1a76:	0e 94 aa 0b 	call	0x1754	; 0x1754 <Enable_Pulse>
}
    1a7a:	0f 90       	pop	r0
    1a7c:	0f 90       	pop	r0
    1a7e:	0f 90       	pop	r0
    1a80:	cf 91       	pop	r28
    1a82:	df 91       	pop	r29
    1a84:	08 95       	ret

00001a86 <Lcd_DisplayChr>:

void Lcd_DisplayChr(u8 chr)
{
    1a86:	df 93       	push	r29
    1a88:	cf 93       	push	r28
    1a8a:	0f 92       	push	r0
    1a8c:	cd b7       	in	r28, 0x3d	; 61
    1a8e:	de b7       	in	r29, 0x3e	; 62
    1a90:	89 83       	std	Y+1, r24	; 0x01
	Lcd_Data(chr);
    1a92:	89 81       	ldd	r24, Y+1	; 0x01
    1a94:	0e 94 f7 0c 	call	0x19ee	; 0x19ee <Lcd_Data>
}
    1a98:	0f 90       	pop	r0
    1a9a:	cf 91       	pop	r28
    1a9c:	df 91       	pop	r29
    1a9e:	08 95       	ret

00001aa0 <Lcd_DisplayStr>:

void Lcd_DisplayStr(u8* str)
{
    1aa0:	df 93       	push	r29
    1aa2:	cf 93       	push	r28
    1aa4:	00 d0       	rcall	.+0      	; 0x1aa6 <Lcd_DisplayStr+0x6>
    1aa6:	cd b7       	in	r28, 0x3d	; 61
    1aa8:	de b7       	in	r29, 0x3e	; 62
    1aaa:	9a 83       	std	Y+2, r25	; 0x02
    1aac:	89 83       	std	Y+1, r24	; 0x01
    1aae:	0a c0       	rjmp	.+20     	; 0x1ac4 <Lcd_DisplayStr+0x24>
	while (*str != '\0')
	{
		Lcd_DisplayChr(*str);
    1ab0:	e9 81       	ldd	r30, Y+1	; 0x01
    1ab2:	fa 81       	ldd	r31, Y+2	; 0x02
    1ab4:	80 81       	ld	r24, Z
    1ab6:	0e 94 43 0d 	call	0x1a86	; 0x1a86 <Lcd_DisplayChr>
		str++;
    1aba:	89 81       	ldd	r24, Y+1	; 0x01
    1abc:	9a 81       	ldd	r25, Y+2	; 0x02
    1abe:	01 96       	adiw	r24, 0x01	; 1
    1ac0:	9a 83       	std	Y+2, r25	; 0x02
    1ac2:	89 83       	std	Y+1, r24	; 0x01
	Lcd_Data(chr);
}

void Lcd_DisplayStr(u8* str)
{
	while (*str != '\0')
    1ac4:	e9 81       	ldd	r30, Y+1	; 0x01
    1ac6:	fa 81       	ldd	r31, Y+2	; 0x02
    1ac8:	80 81       	ld	r24, Z
    1aca:	88 23       	and	r24, r24
    1acc:	89 f7       	brne	.-30     	; 0x1ab0 <Lcd_DisplayStr+0x10>
	{
		Lcd_DisplayChr(*str);
		str++;
	}
}
    1ace:	0f 90       	pop	r0
    1ad0:	0f 90       	pop	r0
    1ad2:	cf 91       	pop	r28
    1ad4:	df 91       	pop	r29
    1ad6:	08 95       	ret

00001ad8 <Lcd_Goto_Row_Column>:

void Lcd_Goto_Row_Column(u8 row, u8 col)
{
    1ad8:	df 93       	push	r29
    1ada:	cf 93       	push	r28
    1adc:	00 d0       	rcall	.+0      	; 0x1ade <Lcd_Goto_Row_Column+0x6>
    1ade:	00 d0       	rcall	.+0      	; 0x1ae0 <Lcd_Goto_Row_Column+0x8>
    1ae0:	cd b7       	in	r28, 0x3d	; 61
    1ae2:	de b7       	in	r29, 0x3e	; 62
    1ae4:	89 83       	std	Y+1, r24	; 0x01
    1ae6:	6a 83       	std	Y+2, r22	; 0x02
	switch (row)
    1ae8:	89 81       	ldd	r24, Y+1	; 0x01
    1aea:	28 2f       	mov	r18, r24
    1aec:	30 e0       	ldi	r19, 0x00	; 0
    1aee:	3c 83       	std	Y+4, r19	; 0x04
    1af0:	2b 83       	std	Y+3, r18	; 0x03
    1af2:	8b 81       	ldd	r24, Y+3	; 0x03
    1af4:	9c 81       	ldd	r25, Y+4	; 0x04
    1af6:	00 97       	sbiw	r24, 0x00	; 0
    1af8:	31 f0       	breq	.+12     	; 0x1b06 <Lcd_Goto_Row_Column+0x2e>
    1afa:	2b 81       	ldd	r18, Y+3	; 0x03
    1afc:	3c 81       	ldd	r19, Y+4	; 0x04
    1afe:	21 30       	cpi	r18, 0x01	; 1
    1b00:	31 05       	cpc	r19, r1
    1b02:	31 f0       	breq	.+12     	; 0x1b10 <Lcd_Goto_Row_Column+0x38>
    1b04:	09 c0       	rjmp	.+18     	; 0x1b18 <Lcd_Goto_Row_Column+0x40>
	{
	case 0:
		Lcd_Cmd(0x80+col);
    1b06:	8a 81       	ldd	r24, Y+2	; 0x02
    1b08:	80 58       	subi	r24, 0x80	; 128
    1b0a:	0e 94 1d 0d 	call	0x1a3a	; 0x1a3a <Lcd_Cmd>
    1b0e:	04 c0       	rjmp	.+8      	; 0x1b18 <Lcd_Goto_Row_Column+0x40>
		break;

	case 1:
		Lcd_Cmd(0xC0+col);
    1b10:	8a 81       	ldd	r24, Y+2	; 0x02
    1b12:	80 54       	subi	r24, 0x40	; 64
    1b14:	0e 94 1d 0d 	call	0x1a3a	; 0x1a3a <Lcd_Cmd>
		break;
	}
}
    1b18:	0f 90       	pop	r0
    1b1a:	0f 90       	pop	r0
    1b1c:	0f 90       	pop	r0
    1b1e:	0f 90       	pop	r0
    1b20:	cf 91       	pop	r28
    1b22:	df 91       	pop	r29
    1b24:	08 95       	ret

00001b26 <Lcd_DisplayNum>:

void Lcd_DisplayNum(u16 num)
{
    1b26:	df 93       	push	r29
    1b28:	cf 93       	push	r28
    1b2a:	00 d0       	rcall	.+0      	; 0x1b2c <Lcd_DisplayNum+0x6>
    1b2c:	cd b7       	in	r28, 0x3d	; 61
    1b2e:	de b7       	in	r29, 0x3e	; 62
    1b30:	9a 83       	std	Y+2, r25	; 0x02
    1b32:	89 83       	std	Y+1, r24	; 0x01
	Lcd_DisplayChr(num/1000 + '0');
    1b34:	89 81       	ldd	r24, Y+1	; 0x01
    1b36:	9a 81       	ldd	r25, Y+2	; 0x02
    1b38:	28 ee       	ldi	r18, 0xE8	; 232
    1b3a:	33 e0       	ldi	r19, 0x03	; 3
    1b3c:	b9 01       	movw	r22, r18
    1b3e:	0e 94 f8 1c 	call	0x39f0	; 0x39f0 <__udivmodhi4>
    1b42:	cb 01       	movw	r24, r22
    1b44:	80 5d       	subi	r24, 0xD0	; 208
    1b46:	0e 94 43 0d 	call	0x1a86	; 0x1a86 <Lcd_DisplayChr>
	Lcd_DisplayChr(num%1000/100 + '0');
    1b4a:	89 81       	ldd	r24, Y+1	; 0x01
    1b4c:	9a 81       	ldd	r25, Y+2	; 0x02
    1b4e:	28 ee       	ldi	r18, 0xE8	; 232
    1b50:	33 e0       	ldi	r19, 0x03	; 3
    1b52:	b9 01       	movw	r22, r18
    1b54:	0e 94 f8 1c 	call	0x39f0	; 0x39f0 <__udivmodhi4>
    1b58:	24 e6       	ldi	r18, 0x64	; 100
    1b5a:	30 e0       	ldi	r19, 0x00	; 0
    1b5c:	b9 01       	movw	r22, r18
    1b5e:	0e 94 f8 1c 	call	0x39f0	; 0x39f0 <__udivmodhi4>
    1b62:	cb 01       	movw	r24, r22
    1b64:	80 5d       	subi	r24, 0xD0	; 208
    1b66:	0e 94 43 0d 	call	0x1a86	; 0x1a86 <Lcd_DisplayChr>
	Lcd_DisplayChr(num%1000%100/10 + '0');
    1b6a:	89 81       	ldd	r24, Y+1	; 0x01
    1b6c:	9a 81       	ldd	r25, Y+2	; 0x02
    1b6e:	28 ee       	ldi	r18, 0xE8	; 232
    1b70:	33 e0       	ldi	r19, 0x03	; 3
    1b72:	b9 01       	movw	r22, r18
    1b74:	0e 94 f8 1c 	call	0x39f0	; 0x39f0 <__udivmodhi4>
    1b78:	24 e6       	ldi	r18, 0x64	; 100
    1b7a:	30 e0       	ldi	r19, 0x00	; 0
    1b7c:	b9 01       	movw	r22, r18
    1b7e:	0e 94 f8 1c 	call	0x39f0	; 0x39f0 <__udivmodhi4>
    1b82:	2a e0       	ldi	r18, 0x0A	; 10
    1b84:	30 e0       	ldi	r19, 0x00	; 0
    1b86:	b9 01       	movw	r22, r18
    1b88:	0e 94 f8 1c 	call	0x39f0	; 0x39f0 <__udivmodhi4>
    1b8c:	cb 01       	movw	r24, r22
    1b8e:	80 5d       	subi	r24, 0xD0	; 208
    1b90:	0e 94 43 0d 	call	0x1a86	; 0x1a86 <Lcd_DisplayChr>
	Lcd_DisplayChr(num%1000%100%10 + '0');
    1b94:	89 81       	ldd	r24, Y+1	; 0x01
    1b96:	9a 81       	ldd	r25, Y+2	; 0x02
    1b98:	28 ee       	ldi	r18, 0xE8	; 232
    1b9a:	33 e0       	ldi	r19, 0x03	; 3
    1b9c:	b9 01       	movw	r22, r18
    1b9e:	0e 94 f8 1c 	call	0x39f0	; 0x39f0 <__udivmodhi4>
    1ba2:	24 e6       	ldi	r18, 0x64	; 100
    1ba4:	30 e0       	ldi	r19, 0x00	; 0
    1ba6:	b9 01       	movw	r22, r18
    1ba8:	0e 94 f8 1c 	call	0x39f0	; 0x39f0 <__udivmodhi4>
    1bac:	2a e0       	ldi	r18, 0x0A	; 10
    1bae:	30 e0       	ldi	r19, 0x00	; 0
    1bb0:	b9 01       	movw	r22, r18
    1bb2:	0e 94 f8 1c 	call	0x39f0	; 0x39f0 <__udivmodhi4>
    1bb6:	80 5d       	subi	r24, 0xD0	; 208
    1bb8:	0e 94 43 0d 	call	0x1a86	; 0x1a86 <Lcd_DisplayChr>
}
    1bbc:	0f 90       	pop	r0
    1bbe:	0f 90       	pop	r0
    1bc0:	cf 91       	pop	r28
    1bc2:	df 91       	pop	r29
    1bc4:	08 95       	ret

00001bc6 <LcdDisplayFloat>:

void LcdDisplayFloat(f64 floatNum)
{
    1bc6:	df 93       	push	r29
    1bc8:	cf 93       	push	r28
    1bca:	cd b7       	in	r28, 0x3d	; 61
    1bcc:	de b7       	in	r29, 0x3e	; 62
    1bce:	2c 97       	sbiw	r28, 0x0c	; 12
    1bd0:	0f b6       	in	r0, 0x3f	; 63
    1bd2:	f8 94       	cli
    1bd4:	de bf       	out	0x3e, r29	; 62
    1bd6:	0f be       	out	0x3f, r0	; 63
    1bd8:	cd bf       	out	0x3d, r28	; 61
    1bda:	69 87       	std	Y+9, r22	; 0x09
    1bdc:	7a 87       	std	Y+10, r23	; 0x0a
    1bde:	8b 87       	std	Y+11, r24	; 0x0b
    1be0:	9c 87       	std	Y+12, r25	; 0x0c
	u16 intPart = 0;
    1be2:	18 86       	std	Y+8, r1	; 0x08
    1be4:	1f 82       	std	Y+7, r1	; 0x07
	f64 fractionTemp = 0;
    1be6:	80 e0       	ldi	r24, 0x00	; 0
    1be8:	90 e0       	ldi	r25, 0x00	; 0
    1bea:	a0 e0       	ldi	r26, 0x00	; 0
    1bec:	b0 e0       	ldi	r27, 0x00	; 0
    1bee:	8b 83       	std	Y+3, r24	; 0x03
    1bf0:	9c 83       	std	Y+4, r25	; 0x04
    1bf2:	ad 83       	std	Y+5, r26	; 0x05
    1bf4:	be 83       	std	Y+6, r27	; 0x06
	u16 fractionPart = 0;
    1bf6:	1a 82       	std	Y+2, r1	; 0x02
    1bf8:	19 82       	std	Y+1, r1	; 0x01

	intPart = (u16)floatNum;
    1bfa:	69 85       	ldd	r22, Y+9	; 0x09
    1bfc:	7a 85       	ldd	r23, Y+10	; 0x0a
    1bfe:	8b 85       	ldd	r24, Y+11	; 0x0b
    1c00:	9c 85       	ldd	r25, Y+12	; 0x0c
    1c02:	0e 94 41 00 	call	0x82	; 0x82 <__fixunssfsi>
    1c06:	dc 01       	movw	r26, r24
    1c08:	cb 01       	movw	r24, r22
    1c0a:	98 87       	std	Y+8, r25	; 0x08
    1c0c:	8f 83       	std	Y+7, r24	; 0x07
	fractionTemp = floatNum - intPart;
    1c0e:	8f 81       	ldd	r24, Y+7	; 0x07
    1c10:	98 85       	ldd	r25, Y+8	; 0x08
    1c12:	cc 01       	movw	r24, r24
    1c14:	a0 e0       	ldi	r26, 0x00	; 0
    1c16:	b0 e0       	ldi	r27, 0x00	; 0
    1c18:	bc 01       	movw	r22, r24
    1c1a:	cd 01       	movw	r24, r26
    1c1c:	0e 94 a1 04 	call	0x942	; 0x942 <__floatunsisf>
    1c20:	9b 01       	movw	r18, r22
    1c22:	ac 01       	movw	r20, r24
    1c24:	69 85       	ldd	r22, Y+9	; 0x09
    1c26:	7a 85       	ldd	r23, Y+10	; 0x0a
    1c28:	8b 85       	ldd	r24, Y+11	; 0x0b
    1c2a:	9c 85       	ldd	r25, Y+12	; 0x0c
    1c2c:	0e 94 b9 01 	call	0x372	; 0x372 <__subsf3>
    1c30:	dc 01       	movw	r26, r24
    1c32:	cb 01       	movw	r24, r22
    1c34:	8b 83       	std	Y+3, r24	; 0x03
    1c36:	9c 83       	std	Y+4, r25	; 0x04
    1c38:	ad 83       	std	Y+5, r26	; 0x05
    1c3a:	be 83       	std	Y+6, r27	; 0x06
	fractionPart = fractionTemp * 100;
    1c3c:	6b 81       	ldd	r22, Y+3	; 0x03
    1c3e:	7c 81       	ldd	r23, Y+4	; 0x04
    1c40:	8d 81       	ldd	r24, Y+5	; 0x05
    1c42:	9e 81       	ldd	r25, Y+6	; 0x06
    1c44:	20 e0       	ldi	r18, 0x00	; 0
    1c46:	30 e0       	ldi	r19, 0x00	; 0
    1c48:	48 ec       	ldi	r20, 0xC8	; 200
    1c4a:	52 e4       	ldi	r21, 0x42	; 66
    1c4c:	0e 94 17 02 	call	0x42e	; 0x42e <__mulsf3>
    1c50:	dc 01       	movw	r26, r24
    1c52:	cb 01       	movw	r24, r22
    1c54:	bc 01       	movw	r22, r24
    1c56:	cd 01       	movw	r24, r26
    1c58:	0e 94 41 00 	call	0x82	; 0x82 <__fixunssfsi>
    1c5c:	dc 01       	movw	r26, r24
    1c5e:	cb 01       	movw	r24, r22
    1c60:	9a 83       	std	Y+2, r25	; 0x02
    1c62:	89 83       	std	Y+1, r24	; 0x01

	Lcd_DisplayNum(intPart);
    1c64:	8f 81       	ldd	r24, Y+7	; 0x07
    1c66:	98 85       	ldd	r25, Y+8	; 0x08
    1c68:	0e 94 93 0d 	call	0x1b26	; 0x1b26 <Lcd_DisplayNum>
	Lcd_DisplayChr('.');
    1c6c:	8e e2       	ldi	r24, 0x2E	; 46
    1c6e:	0e 94 43 0d 	call	0x1a86	; 0x1a86 <Lcd_DisplayChr>
	Lcd_DisplayNum(fractionPart);
    1c72:	89 81       	ldd	r24, Y+1	; 0x01
    1c74:	9a 81       	ldd	r25, Y+2	; 0x02
    1c76:	0e 94 93 0d 	call	0x1b26	; 0x1b26 <Lcd_DisplayNum>
}
    1c7a:	2c 96       	adiw	r28, 0x0c	; 12
    1c7c:	0f b6       	in	r0, 0x3f	; 63
    1c7e:	f8 94       	cli
    1c80:	de bf       	out	0x3e, r29	; 62
    1c82:	0f be       	out	0x3f, r0	; 63
    1c84:	cd bf       	out	0x3d, r28	; 61
    1c86:	cf 91       	pop	r28
    1c88:	df 91       	pop	r29
    1c8a:	08 95       	ret

00001c8c <ndigit>:
	vdown
}axis;


int ndigit(int n)
{
    1c8c:	df 93       	push	r29
    1c8e:	cf 93       	push	r28
    1c90:	00 d0       	rcall	.+0      	; 0x1c92 <ndigit+0x6>
    1c92:	00 d0       	rcall	.+0      	; 0x1c94 <ndigit+0x8>
    1c94:	cd b7       	in	r28, 0x3d	; 61
    1c96:	de b7       	in	r29, 0x3e	; 62
    1c98:	9a 83       	std	Y+2, r25	; 0x02
    1c9a:	89 83       	std	Y+1, r24	; 0x01
    if (n/10 == 0)
    1c9c:	89 81       	ldd	r24, Y+1	; 0x01
    1c9e:	9a 81       	ldd	r25, Y+2	; 0x02
    1ca0:	09 96       	adiw	r24, 0x09	; 9
    1ca2:	83 31       	cpi	r24, 0x13	; 19
    1ca4:	91 05       	cpc	r25, r1
    1ca6:	28 f4       	brcc	.+10     	; 0x1cb2 <ndigit+0x26>
        return 1;
    1ca8:	21 e0       	ldi	r18, 0x01	; 1
    1caa:	30 e0       	ldi	r19, 0x00	; 0
    1cac:	3c 83       	std	Y+4, r19	; 0x04
    1cae:	2b 83       	std	Y+3, r18	; 0x03
    1cb0:	0f c0       	rjmp	.+30     	; 0x1cd0 <ndigit+0x44>
    return 1 + ndigit(n / 10);
    1cb2:	89 81       	ldd	r24, Y+1	; 0x01
    1cb4:	9a 81       	ldd	r25, Y+2	; 0x02
    1cb6:	2a e0       	ldi	r18, 0x0A	; 10
    1cb8:	30 e0       	ldi	r19, 0x00	; 0
    1cba:	b9 01       	movw	r22, r18
    1cbc:	0e 94 0c 1d 	call	0x3a18	; 0x3a18 <__divmodhi4>
    1cc0:	cb 01       	movw	r24, r22
    1cc2:	0e 94 46 0e 	call	0x1c8c	; 0x1c8c <ndigit>
    1cc6:	9c 01       	movw	r18, r24
    1cc8:	2f 5f       	subi	r18, 0xFF	; 255
    1cca:	3f 4f       	sbci	r19, 0xFF	; 255
    1ccc:	3c 83       	std	Y+4, r19	; 0x04
    1cce:	2b 83       	std	Y+3, r18	; 0x03
    1cd0:	8b 81       	ldd	r24, Y+3	; 0x03
    1cd2:	9c 81       	ldd	r25, Y+4	; 0x04
}
    1cd4:	0f 90       	pop	r0
    1cd6:	0f 90       	pop	r0
    1cd8:	0f 90       	pop	r0
    1cda:	0f 90       	pop	r0
    1cdc:	cf 91       	pop	r28
    1cde:	df 91       	pop	r29
    1ce0:	08 95       	ret

00001ce2 <GLCD_Command>:

void GLCD_Command(char Command) /* GLCD command function */
{
    1ce2:	df 93       	push	r29
    1ce4:	cf 93       	push	r28
    1ce6:	cd b7       	in	r28, 0x3d	; 61
    1ce8:	de b7       	in	r29, 0x3e	; 62
    1cea:	e1 97       	sbiw	r28, 0x31	; 49
    1cec:	0f b6       	in	r0, 0x3f	; 63
    1cee:	f8 94       	cli
    1cf0:	de bf       	out	0x3e, r29	; 62
    1cf2:	0f be       	out	0x3f, r0	; 63
    1cf4:	cd bf       	out	0x3d, r28	; 61
    1cf6:	89 ab       	std	Y+49, r24	; 0x31
    Data_Port = Command;        /* Copy command on data pin */
    1cf8:	eb e3       	ldi	r30, 0x3B	; 59
    1cfa:	f0 e0       	ldi	r31, 0x00	; 0
    1cfc:	89 a9       	ldd	r24, Y+49	; 0x31
    1cfe:	80 83       	st	Z, r24
    Command_Port &= ~(1 << RS); /* Make RS LOW to select command register */
    1d00:	a5 e3       	ldi	r26, 0x35	; 53
    1d02:	b0 e0       	ldi	r27, 0x00	; 0
    1d04:	e5 e3       	ldi	r30, 0x35	; 53
    1d06:	f0 e0       	ldi	r31, 0x00	; 0
    1d08:	80 81       	ld	r24, Z
    1d0a:	8e 7f       	andi	r24, 0xFE	; 254
    1d0c:	8c 93       	st	X, r24
    Command_Port &= ~(1 << RW); /* Make RW LOW to select write operation */
    1d0e:	a5 e3       	ldi	r26, 0x35	; 53
    1d10:	b0 e0       	ldi	r27, 0x00	; 0
    1d12:	e5 e3       	ldi	r30, 0x35	; 53
    1d14:	f0 e0       	ldi	r31, 0x00	; 0
    1d16:	80 81       	ld	r24, Z
    1d18:	8d 7f       	andi	r24, 0xFD	; 253
    1d1a:	8c 93       	st	X, r24
    Command_Port |= (1 << EN);  /* Make HIGH to LOW transition on Enable pin */
    1d1c:	a5 e3       	ldi	r26, 0x35	; 53
    1d1e:	b0 e0       	ldi	r27, 0x00	; 0
    1d20:	e5 e3       	ldi	r30, 0x35	; 53
    1d22:	f0 e0       	ldi	r31, 0x00	; 0
    1d24:	80 81       	ld	r24, Z
    1d26:	84 60       	ori	r24, 0x04	; 4
    1d28:	8c 93       	st	X, r24
    1d2a:	80 e0       	ldi	r24, 0x00	; 0
    1d2c:	90 e0       	ldi	r25, 0x00	; 0
    1d2e:	a0 ea       	ldi	r26, 0xA0	; 160
    1d30:	b0 e4       	ldi	r27, 0x40	; 64
    1d32:	8d a7       	std	Y+45, r24	; 0x2d
    1d34:	9e a7       	std	Y+46, r25	; 0x2e
    1d36:	af a7       	std	Y+47, r26	; 0x2f
    1d38:	b8 ab       	std	Y+48, r27	; 0x30
 */
void
_delay_us(double __us)
{
	uint8_t __ticks;
	double __tmp = ((F_CPU) / 3e6) * __us;
    1d3a:	6d a5       	ldd	r22, Y+45	; 0x2d
    1d3c:	7e a5       	ldd	r23, Y+46	; 0x2e
    1d3e:	8f a5       	ldd	r24, Y+47	; 0x2f
    1d40:	98 a9       	ldd	r25, Y+48	; 0x30
    1d42:	2b ea       	ldi	r18, 0xAB	; 171
    1d44:	3a ea       	ldi	r19, 0xAA	; 170
    1d46:	4a e2       	ldi	r20, 0x2A	; 42
    1d48:	50 e4       	ldi	r21, 0x40	; 64
    1d4a:	0e 94 17 02 	call	0x42e	; 0x42e <__mulsf3>
    1d4e:	dc 01       	movw	r26, r24
    1d50:	cb 01       	movw	r24, r22
    1d52:	89 a7       	std	Y+41, r24	; 0x29
    1d54:	9a a7       	std	Y+42, r25	; 0x2a
    1d56:	ab a7       	std	Y+43, r26	; 0x2b
    1d58:	bc a7       	std	Y+44, r27	; 0x2c
	if (__tmp < 1.0)
    1d5a:	69 a5       	ldd	r22, Y+41	; 0x29
    1d5c:	7a a5       	ldd	r23, Y+42	; 0x2a
    1d5e:	8b a5       	ldd	r24, Y+43	; 0x2b
    1d60:	9c a5       	ldd	r25, Y+44	; 0x2c
    1d62:	20 e0       	ldi	r18, 0x00	; 0
    1d64:	30 e0       	ldi	r19, 0x00	; 0
    1d66:	40 e8       	ldi	r20, 0x80	; 128
    1d68:	5f e3       	ldi	r21, 0x3F	; 63
    1d6a:	0e 94 1d 04 	call	0x83a	; 0x83a <__ltsf2>
    1d6e:	88 23       	and	r24, r24
    1d70:	1c f4       	brge	.+6      	; 0x1d78 <GLCD_Command+0x96>
		__ticks = 1;
    1d72:	81 e0       	ldi	r24, 0x01	; 1
    1d74:	88 a7       	std	Y+40, r24	; 0x28
    1d76:	91 c0       	rjmp	.+290    	; 0x1e9a <GLCD_Command+0x1b8>
	else if (__tmp > 255)
    1d78:	69 a5       	ldd	r22, Y+41	; 0x29
    1d7a:	7a a5       	ldd	r23, Y+42	; 0x2a
    1d7c:	8b a5       	ldd	r24, Y+43	; 0x2b
    1d7e:	9c a5       	ldd	r25, Y+44	; 0x2c
    1d80:	20 e0       	ldi	r18, 0x00	; 0
    1d82:	30 e0       	ldi	r19, 0x00	; 0
    1d84:	4f e7       	ldi	r20, 0x7F	; 127
    1d86:	53 e4       	ldi	r21, 0x43	; 67
    1d88:	0e 94 bd 03 	call	0x77a	; 0x77a <__gtsf2>
    1d8c:	18 16       	cp	r1, r24
    1d8e:	0c f0       	brlt	.+2      	; 0x1d92 <GLCD_Command+0xb0>
    1d90:	7b c0       	rjmp	.+246    	; 0x1e88 <GLCD_Command+0x1a6>
	{
		_delay_ms(__us / 1000.0);
    1d92:	6d a5       	ldd	r22, Y+45	; 0x2d
    1d94:	7e a5       	ldd	r23, Y+46	; 0x2e
    1d96:	8f a5       	ldd	r24, Y+47	; 0x2f
    1d98:	98 a9       	ldd	r25, Y+48	; 0x30
    1d9a:	20 e0       	ldi	r18, 0x00	; 0
    1d9c:	30 e0       	ldi	r19, 0x00	; 0
    1d9e:	4a e7       	ldi	r20, 0x7A	; 122
    1da0:	54 e4       	ldi	r21, 0x44	; 68
    1da2:	0e 94 11 03 	call	0x622	; 0x622 <__divsf3>
    1da6:	dc 01       	movw	r26, r24
    1da8:	cb 01       	movw	r24, r22
    1daa:	8c a3       	std	Y+36, r24	; 0x24
    1dac:	9d a3       	std	Y+37, r25	; 0x25
    1dae:	ae a3       	std	Y+38, r26	; 0x26
    1db0:	bf a3       	std	Y+39, r27	; 0x27
 */
void
_delay_ms(double __ms)
{
	uint16_t __ticks;
	double __tmp = ((F_CPU) / 4e3) * __ms;
    1db2:	6c a1       	ldd	r22, Y+36	; 0x24
    1db4:	7d a1       	ldd	r23, Y+37	; 0x25
    1db6:	8e a1       	ldd	r24, Y+38	; 0x26
    1db8:	9f a1       	ldd	r25, Y+39	; 0x27
    1dba:	20 e0       	ldi	r18, 0x00	; 0
    1dbc:	30 e0       	ldi	r19, 0x00	; 0
    1dbe:	4a ef       	ldi	r20, 0xFA	; 250
    1dc0:	54 e4       	ldi	r21, 0x44	; 68
    1dc2:	0e 94 17 02 	call	0x42e	; 0x42e <__mulsf3>
    1dc6:	dc 01       	movw	r26, r24
    1dc8:	cb 01       	movw	r24, r22
    1dca:	88 a3       	std	Y+32, r24	; 0x20
    1dcc:	99 a3       	std	Y+33, r25	; 0x21
    1dce:	aa a3       	std	Y+34, r26	; 0x22
    1dd0:	bb a3       	std	Y+35, r27	; 0x23
	if (__tmp < 1.0)
    1dd2:	68 a1       	ldd	r22, Y+32	; 0x20
    1dd4:	79 a1       	ldd	r23, Y+33	; 0x21
    1dd6:	8a a1       	ldd	r24, Y+34	; 0x22
    1dd8:	9b a1       	ldd	r25, Y+35	; 0x23
    1dda:	20 e0       	ldi	r18, 0x00	; 0
    1ddc:	30 e0       	ldi	r19, 0x00	; 0
    1dde:	40 e8       	ldi	r20, 0x80	; 128
    1de0:	5f e3       	ldi	r21, 0x3F	; 63
    1de2:	0e 94 1d 04 	call	0x83a	; 0x83a <__ltsf2>
    1de6:	88 23       	and	r24, r24
    1de8:	2c f4       	brge	.+10     	; 0x1df4 <GLCD_Command+0x112>
		__ticks = 1;
    1dea:	81 e0       	ldi	r24, 0x01	; 1
    1dec:	90 e0       	ldi	r25, 0x00	; 0
    1dee:	9f 8f       	std	Y+31, r25	; 0x1f
    1df0:	8e 8f       	std	Y+30, r24	; 0x1e
    1df2:	3f c0       	rjmp	.+126    	; 0x1e72 <GLCD_Command+0x190>
	else if (__tmp > 65535)
    1df4:	68 a1       	ldd	r22, Y+32	; 0x20
    1df6:	79 a1       	ldd	r23, Y+33	; 0x21
    1df8:	8a a1       	ldd	r24, Y+34	; 0x22
    1dfa:	9b a1       	ldd	r25, Y+35	; 0x23
    1dfc:	20 e0       	ldi	r18, 0x00	; 0
    1dfe:	3f ef       	ldi	r19, 0xFF	; 255
    1e00:	4f e7       	ldi	r20, 0x7F	; 127
    1e02:	57 e4       	ldi	r21, 0x47	; 71
    1e04:	0e 94 bd 03 	call	0x77a	; 0x77a <__gtsf2>
    1e08:	18 16       	cp	r1, r24
    1e0a:	4c f5       	brge	.+82     	; 0x1e5e <GLCD_Command+0x17c>
	{
		//	__ticks = requested delay in 1/10 ms
		__ticks = (uint16_t) (__ms * 10.0);
    1e0c:	6c a1       	ldd	r22, Y+36	; 0x24
    1e0e:	7d a1       	ldd	r23, Y+37	; 0x25
    1e10:	8e a1       	ldd	r24, Y+38	; 0x26
    1e12:	9f a1       	ldd	r25, Y+39	; 0x27
    1e14:	20 e0       	ldi	r18, 0x00	; 0
    1e16:	30 e0       	ldi	r19, 0x00	; 0
    1e18:	40 e2       	ldi	r20, 0x20	; 32
    1e1a:	51 e4       	ldi	r21, 0x41	; 65
    1e1c:	0e 94 17 02 	call	0x42e	; 0x42e <__mulsf3>
    1e20:	dc 01       	movw	r26, r24
    1e22:	cb 01       	movw	r24, r22
    1e24:	bc 01       	movw	r22, r24
    1e26:	cd 01       	movw	r24, r26
    1e28:	0e 94 41 00 	call	0x82	; 0x82 <__fixunssfsi>
    1e2c:	dc 01       	movw	r26, r24
    1e2e:	cb 01       	movw	r24, r22
    1e30:	9f 8f       	std	Y+31, r25	; 0x1f
    1e32:	8e 8f       	std	Y+30, r24	; 0x1e
    1e34:	0f c0       	rjmp	.+30     	; 0x1e54 <GLCD_Command+0x172>
    1e36:	88 ec       	ldi	r24, 0xC8	; 200
    1e38:	90 e0       	ldi	r25, 0x00	; 0
    1e3a:	9d 8f       	std	Y+29, r25	; 0x1d
    1e3c:	8c 8f       	std	Y+28, r24	; 0x1c
    1e3e:	8c 8d       	ldd	r24, Y+28	; 0x1c
    1e40:	9d 8d       	ldd	r25, Y+29	; 0x1d
    1e42:	01 97       	sbiw	r24, 0x01	; 1
    1e44:	f1 f7       	brne	.-4      	; 0x1e42 <GLCD_Command+0x160>
    1e46:	9d 8f       	std	Y+29, r25	; 0x1d
    1e48:	8c 8f       	std	Y+28, r24	; 0x1c
		while(__ticks)
		{
			// wait 1/10 ms
			_delay_loop_2(((F_CPU) / 4e3) / 10);
			__ticks --;
    1e4a:	8e 8d       	ldd	r24, Y+30	; 0x1e
    1e4c:	9f 8d       	ldd	r25, Y+31	; 0x1f
    1e4e:	01 97       	sbiw	r24, 0x01	; 1
    1e50:	9f 8f       	std	Y+31, r25	; 0x1f
    1e52:	8e 8f       	std	Y+30, r24	; 0x1e
		__ticks = 1;
	else if (__tmp > 65535)
	{
		//	__ticks = requested delay in 1/10 ms
		__ticks = (uint16_t) (__ms * 10.0);
		while(__ticks)
    1e54:	8e 8d       	ldd	r24, Y+30	; 0x1e
    1e56:	9f 8d       	ldd	r25, Y+31	; 0x1f
    1e58:	00 97       	sbiw	r24, 0x00	; 0
    1e5a:	69 f7       	brne	.-38     	; 0x1e36 <GLCD_Command+0x154>
    1e5c:	24 c0       	rjmp	.+72     	; 0x1ea6 <GLCD_Command+0x1c4>
			__ticks --;
		}
		return;
	}
	else
		__ticks = (uint16_t)__tmp;
    1e5e:	68 a1       	ldd	r22, Y+32	; 0x20
    1e60:	79 a1       	ldd	r23, Y+33	; 0x21
    1e62:	8a a1       	ldd	r24, Y+34	; 0x22
    1e64:	9b a1       	ldd	r25, Y+35	; 0x23
    1e66:	0e 94 41 00 	call	0x82	; 0x82 <__fixunssfsi>
    1e6a:	dc 01       	movw	r26, r24
    1e6c:	cb 01       	movw	r24, r22
    1e6e:	9f 8f       	std	Y+31, r25	; 0x1f
    1e70:	8e 8f       	std	Y+30, r24	; 0x1e
    1e72:	8e 8d       	ldd	r24, Y+30	; 0x1e
    1e74:	9f 8d       	ldd	r25, Y+31	; 0x1f
    1e76:	9b 8f       	std	Y+27, r25	; 0x1b
    1e78:	8a 8f       	std	Y+26, r24	; 0x1a
    1e7a:	8a 8d       	ldd	r24, Y+26	; 0x1a
    1e7c:	9b 8d       	ldd	r25, Y+27	; 0x1b
    1e7e:	01 97       	sbiw	r24, 0x01	; 1
    1e80:	f1 f7       	brne	.-4      	; 0x1e7e <GLCD_Command+0x19c>
    1e82:	9b 8f       	std	Y+27, r25	; 0x1b
    1e84:	8a 8f       	std	Y+26, r24	; 0x1a
    1e86:	0f c0       	rjmp	.+30     	; 0x1ea6 <GLCD_Command+0x1c4>
	{
		_delay_ms(__us / 1000.0);
		return;
	}
	else
		__ticks = (uint8_t)__tmp;
    1e88:	69 a5       	ldd	r22, Y+41	; 0x29
    1e8a:	7a a5       	ldd	r23, Y+42	; 0x2a
    1e8c:	8b a5       	ldd	r24, Y+43	; 0x2b
    1e8e:	9c a5       	ldd	r25, Y+44	; 0x2c
    1e90:	0e 94 41 00 	call	0x82	; 0x82 <__fixunssfsi>
    1e94:	dc 01       	movw	r26, r24
    1e96:	cb 01       	movw	r24, r22
    1e98:	88 a7       	std	Y+40, r24	; 0x28
    1e9a:	88 a5       	ldd	r24, Y+40	; 0x28
    1e9c:	89 8f       	std	Y+25, r24	; 0x19
    can be achieved.
*/
void
_delay_loop_1(uint8_t __count)
{
	__asm__ volatile (
    1e9e:	89 8d       	ldd	r24, Y+25	; 0x19
    1ea0:	8a 95       	dec	r24
    1ea2:	f1 f7       	brne	.-4      	; 0x1ea0 <GLCD_Command+0x1be>
    1ea4:	89 8f       	std	Y+25, r24	; 0x19
    _delay_us(5);
    Command_Port &= ~(1 << EN);
    1ea6:	a5 e3       	ldi	r26, 0x35	; 53
    1ea8:	b0 e0       	ldi	r27, 0x00	; 0
    1eaa:	e5 e3       	ldi	r30, 0x35	; 53
    1eac:	f0 e0       	ldi	r31, 0x00	; 0
    1eae:	80 81       	ld	r24, Z
    1eb0:	8b 7f       	andi	r24, 0xFB	; 251
    1eb2:	8c 93       	st	X, r24
    1eb4:	80 e0       	ldi	r24, 0x00	; 0
    1eb6:	90 e0       	ldi	r25, 0x00	; 0
    1eb8:	a0 ea       	ldi	r26, 0xA0	; 160
    1eba:	b0 e4       	ldi	r27, 0x40	; 64
    1ebc:	8d 8b       	std	Y+21, r24	; 0x15
    1ebe:	9e 8b       	std	Y+22, r25	; 0x16
    1ec0:	af 8b       	std	Y+23, r26	; 0x17
    1ec2:	b8 8f       	std	Y+24, r27	; 0x18
 */
void
_delay_us(double __us)
{
	uint8_t __ticks;
	double __tmp = ((F_CPU) / 3e6) * __us;
    1ec4:	6d 89       	ldd	r22, Y+21	; 0x15
    1ec6:	7e 89       	ldd	r23, Y+22	; 0x16
    1ec8:	8f 89       	ldd	r24, Y+23	; 0x17
    1eca:	98 8d       	ldd	r25, Y+24	; 0x18
    1ecc:	2b ea       	ldi	r18, 0xAB	; 171
    1ece:	3a ea       	ldi	r19, 0xAA	; 170
    1ed0:	4a e2       	ldi	r20, 0x2A	; 42
    1ed2:	50 e4       	ldi	r21, 0x40	; 64
    1ed4:	0e 94 17 02 	call	0x42e	; 0x42e <__mulsf3>
    1ed8:	dc 01       	movw	r26, r24
    1eda:	cb 01       	movw	r24, r22
    1edc:	89 8b       	std	Y+17, r24	; 0x11
    1ede:	9a 8b       	std	Y+18, r25	; 0x12
    1ee0:	ab 8b       	std	Y+19, r26	; 0x13
    1ee2:	bc 8b       	std	Y+20, r27	; 0x14
	if (__tmp < 1.0)
    1ee4:	69 89       	ldd	r22, Y+17	; 0x11
    1ee6:	7a 89       	ldd	r23, Y+18	; 0x12
    1ee8:	8b 89       	ldd	r24, Y+19	; 0x13
    1eea:	9c 89       	ldd	r25, Y+20	; 0x14
    1eec:	20 e0       	ldi	r18, 0x00	; 0
    1eee:	30 e0       	ldi	r19, 0x00	; 0
    1ef0:	40 e8       	ldi	r20, 0x80	; 128
    1ef2:	5f e3       	ldi	r21, 0x3F	; 63
    1ef4:	0e 94 1d 04 	call	0x83a	; 0x83a <__ltsf2>
    1ef8:	88 23       	and	r24, r24
    1efa:	1c f4       	brge	.+6      	; 0x1f02 <GLCD_Command+0x220>
		__ticks = 1;
    1efc:	81 e0       	ldi	r24, 0x01	; 1
    1efe:	88 8b       	std	Y+16, r24	; 0x10
    1f00:	91 c0       	rjmp	.+290    	; 0x2024 <GLCD_Command+0x342>
	else if (__tmp > 255)
    1f02:	69 89       	ldd	r22, Y+17	; 0x11
    1f04:	7a 89       	ldd	r23, Y+18	; 0x12
    1f06:	8b 89       	ldd	r24, Y+19	; 0x13
    1f08:	9c 89       	ldd	r25, Y+20	; 0x14
    1f0a:	20 e0       	ldi	r18, 0x00	; 0
    1f0c:	30 e0       	ldi	r19, 0x00	; 0
    1f0e:	4f e7       	ldi	r20, 0x7F	; 127
    1f10:	53 e4       	ldi	r21, 0x43	; 67
    1f12:	0e 94 bd 03 	call	0x77a	; 0x77a <__gtsf2>
    1f16:	18 16       	cp	r1, r24
    1f18:	0c f0       	brlt	.+2      	; 0x1f1c <GLCD_Command+0x23a>
    1f1a:	7b c0       	rjmp	.+246    	; 0x2012 <GLCD_Command+0x330>
	{
		_delay_ms(__us / 1000.0);
    1f1c:	6d 89       	ldd	r22, Y+21	; 0x15
    1f1e:	7e 89       	ldd	r23, Y+22	; 0x16
    1f20:	8f 89       	ldd	r24, Y+23	; 0x17
    1f22:	98 8d       	ldd	r25, Y+24	; 0x18
    1f24:	20 e0       	ldi	r18, 0x00	; 0
    1f26:	30 e0       	ldi	r19, 0x00	; 0
    1f28:	4a e7       	ldi	r20, 0x7A	; 122
    1f2a:	54 e4       	ldi	r21, 0x44	; 68
    1f2c:	0e 94 11 03 	call	0x622	; 0x622 <__divsf3>
    1f30:	dc 01       	movw	r26, r24
    1f32:	cb 01       	movw	r24, r22
    1f34:	8c 87       	std	Y+12, r24	; 0x0c
    1f36:	9d 87       	std	Y+13, r25	; 0x0d
    1f38:	ae 87       	std	Y+14, r26	; 0x0e
    1f3a:	bf 87       	std	Y+15, r27	; 0x0f
 */
void
_delay_ms(double __ms)
{
	uint16_t __ticks;
	double __tmp = ((F_CPU) / 4e3) * __ms;
    1f3c:	6c 85       	ldd	r22, Y+12	; 0x0c
    1f3e:	7d 85       	ldd	r23, Y+13	; 0x0d
    1f40:	8e 85       	ldd	r24, Y+14	; 0x0e
    1f42:	9f 85       	ldd	r25, Y+15	; 0x0f
    1f44:	20 e0       	ldi	r18, 0x00	; 0
    1f46:	30 e0       	ldi	r19, 0x00	; 0
    1f48:	4a ef       	ldi	r20, 0xFA	; 250
    1f4a:	54 e4       	ldi	r21, 0x44	; 68
    1f4c:	0e 94 17 02 	call	0x42e	; 0x42e <__mulsf3>
    1f50:	dc 01       	movw	r26, r24
    1f52:	cb 01       	movw	r24, r22
    1f54:	88 87       	std	Y+8, r24	; 0x08
    1f56:	99 87       	std	Y+9, r25	; 0x09
    1f58:	aa 87       	std	Y+10, r26	; 0x0a
    1f5a:	bb 87       	std	Y+11, r27	; 0x0b
	if (__tmp < 1.0)
    1f5c:	68 85       	ldd	r22, Y+8	; 0x08
    1f5e:	79 85       	ldd	r23, Y+9	; 0x09
    1f60:	8a 85       	ldd	r24, Y+10	; 0x0a
    1f62:	9b 85       	ldd	r25, Y+11	; 0x0b
    1f64:	20 e0       	ldi	r18, 0x00	; 0
    1f66:	30 e0       	ldi	r19, 0x00	; 0
    1f68:	40 e8       	ldi	r20, 0x80	; 128
    1f6a:	5f e3       	ldi	r21, 0x3F	; 63
    1f6c:	0e 94 1d 04 	call	0x83a	; 0x83a <__ltsf2>
    1f70:	88 23       	and	r24, r24
    1f72:	2c f4       	brge	.+10     	; 0x1f7e <GLCD_Command+0x29c>
		__ticks = 1;
    1f74:	81 e0       	ldi	r24, 0x01	; 1
    1f76:	90 e0       	ldi	r25, 0x00	; 0
    1f78:	9f 83       	std	Y+7, r25	; 0x07
    1f7a:	8e 83       	std	Y+6, r24	; 0x06
    1f7c:	3f c0       	rjmp	.+126    	; 0x1ffc <GLCD_Command+0x31a>
	else if (__tmp > 65535)
    1f7e:	68 85       	ldd	r22, Y+8	; 0x08
    1f80:	79 85       	ldd	r23, Y+9	; 0x09
    1f82:	8a 85       	ldd	r24, Y+10	; 0x0a
    1f84:	9b 85       	ldd	r25, Y+11	; 0x0b
    1f86:	20 e0       	ldi	r18, 0x00	; 0
    1f88:	3f ef       	ldi	r19, 0xFF	; 255
    1f8a:	4f e7       	ldi	r20, 0x7F	; 127
    1f8c:	57 e4       	ldi	r21, 0x47	; 71
    1f8e:	0e 94 bd 03 	call	0x77a	; 0x77a <__gtsf2>
    1f92:	18 16       	cp	r1, r24
    1f94:	4c f5       	brge	.+82     	; 0x1fe8 <GLCD_Command+0x306>
	{
		//	__ticks = requested delay in 1/10 ms
		__ticks = (uint16_t) (__ms * 10.0);
    1f96:	6c 85       	ldd	r22, Y+12	; 0x0c
    1f98:	7d 85       	ldd	r23, Y+13	; 0x0d
    1f9a:	8e 85       	ldd	r24, Y+14	; 0x0e
    1f9c:	9f 85       	ldd	r25, Y+15	; 0x0f
    1f9e:	20 e0       	ldi	r18, 0x00	; 0
    1fa0:	30 e0       	ldi	r19, 0x00	; 0
    1fa2:	40 e2       	ldi	r20, 0x20	; 32
    1fa4:	51 e4       	ldi	r21, 0x41	; 65
    1fa6:	0e 94 17 02 	call	0x42e	; 0x42e <__mulsf3>
    1faa:	dc 01       	movw	r26, r24
    1fac:	cb 01       	movw	r24, r22
    1fae:	bc 01       	movw	r22, r24
    1fb0:	cd 01       	movw	r24, r26
    1fb2:	0e 94 41 00 	call	0x82	; 0x82 <__fixunssfsi>
    1fb6:	dc 01       	movw	r26, r24
    1fb8:	cb 01       	movw	r24, r22
    1fba:	9f 83       	std	Y+7, r25	; 0x07
    1fbc:	8e 83       	std	Y+6, r24	; 0x06
    1fbe:	0f c0       	rjmp	.+30     	; 0x1fde <GLCD_Command+0x2fc>
    1fc0:	88 ec       	ldi	r24, 0xC8	; 200
    1fc2:	90 e0       	ldi	r25, 0x00	; 0
    1fc4:	9d 83       	std	Y+5, r25	; 0x05
    1fc6:	8c 83       	std	Y+4, r24	; 0x04
    milliseconds can be achieved.
 */
void
_delay_loop_2(uint16_t __count)
{
	__asm__ volatile (
    1fc8:	8c 81       	ldd	r24, Y+4	; 0x04
    1fca:	9d 81       	ldd	r25, Y+5	; 0x05
    1fcc:	01 97       	sbiw	r24, 0x01	; 1
    1fce:	f1 f7       	brne	.-4      	; 0x1fcc <GLCD_Command+0x2ea>
    1fd0:	9d 83       	std	Y+5, r25	; 0x05
    1fd2:	8c 83       	std	Y+4, r24	; 0x04
		while(__ticks)
		{
			// wait 1/10 ms
			_delay_loop_2(((F_CPU) / 4e3) / 10);
			__ticks --;
    1fd4:	8e 81       	ldd	r24, Y+6	; 0x06
    1fd6:	9f 81       	ldd	r25, Y+7	; 0x07
    1fd8:	01 97       	sbiw	r24, 0x01	; 1
    1fda:	9f 83       	std	Y+7, r25	; 0x07
    1fdc:	8e 83       	std	Y+6, r24	; 0x06
		__ticks = 1;
	else if (__tmp > 65535)
	{
		//	__ticks = requested delay in 1/10 ms
		__ticks = (uint16_t) (__ms * 10.0);
		while(__ticks)
    1fde:	8e 81       	ldd	r24, Y+6	; 0x06
    1fe0:	9f 81       	ldd	r25, Y+7	; 0x07
    1fe2:	00 97       	sbiw	r24, 0x00	; 0
    1fe4:	69 f7       	brne	.-38     	; 0x1fc0 <GLCD_Command+0x2de>
    1fe6:	24 c0       	rjmp	.+72     	; 0x2030 <GLCD_Command+0x34e>
			__ticks --;
		}
		return;
	}
	else
		__ticks = (uint16_t)__tmp;
    1fe8:	68 85       	ldd	r22, Y+8	; 0x08
    1fea:	79 85       	ldd	r23, Y+9	; 0x09
    1fec:	8a 85       	ldd	r24, Y+10	; 0x0a
    1fee:	9b 85       	ldd	r25, Y+11	; 0x0b
    1ff0:	0e 94 41 00 	call	0x82	; 0x82 <__fixunssfsi>
    1ff4:	dc 01       	movw	r26, r24
    1ff6:	cb 01       	movw	r24, r22
    1ff8:	9f 83       	std	Y+7, r25	; 0x07
    1ffa:	8e 83       	std	Y+6, r24	; 0x06
    1ffc:	8e 81       	ldd	r24, Y+6	; 0x06
    1ffe:	9f 81       	ldd	r25, Y+7	; 0x07
    2000:	9b 83       	std	Y+3, r25	; 0x03
    2002:	8a 83       	std	Y+2, r24	; 0x02
    2004:	8a 81       	ldd	r24, Y+2	; 0x02
    2006:	9b 81       	ldd	r25, Y+3	; 0x03
    2008:	01 97       	sbiw	r24, 0x01	; 1
    200a:	f1 f7       	brne	.-4      	; 0x2008 <GLCD_Command+0x326>
    200c:	9b 83       	std	Y+3, r25	; 0x03
    200e:	8a 83       	std	Y+2, r24	; 0x02
    2010:	0f c0       	rjmp	.+30     	; 0x2030 <GLCD_Command+0x34e>
	{
		_delay_ms(__us / 1000.0);
		return;
	}
	else
		__ticks = (uint8_t)__tmp;
    2012:	69 89       	ldd	r22, Y+17	; 0x11
    2014:	7a 89       	ldd	r23, Y+18	; 0x12
    2016:	8b 89       	ldd	r24, Y+19	; 0x13
    2018:	9c 89       	ldd	r25, Y+20	; 0x14
    201a:	0e 94 41 00 	call	0x82	; 0x82 <__fixunssfsi>
    201e:	dc 01       	movw	r26, r24
    2020:	cb 01       	movw	r24, r22
    2022:	88 8b       	std	Y+16, r24	; 0x10
    2024:	88 89       	ldd	r24, Y+16	; 0x10
    2026:	89 83       	std	Y+1, r24	; 0x01
    can be achieved.
*/
void
_delay_loop_1(uint8_t __count)
{
	__asm__ volatile (
    2028:	89 81       	ldd	r24, Y+1	; 0x01
    202a:	8a 95       	dec	r24
    202c:	f1 f7       	brne	.-4      	; 0x202a <GLCD_Command+0x348>
    202e:	89 83       	std	Y+1, r24	; 0x01
    _delay_us(5);
}
    2030:	e1 96       	adiw	r28, 0x31	; 49
    2032:	0f b6       	in	r0, 0x3f	; 63
    2034:	f8 94       	cli
    2036:	de bf       	out	0x3e, r29	; 62
    2038:	0f be       	out	0x3f, r0	; 63
    203a:	cd bf       	out	0x3d, r28	; 61
    203c:	cf 91       	pop	r28
    203e:	df 91       	pop	r29
    2040:	08 95       	ret

00002042 <GLCD_Data>:

void GLCD_Data(char Data) /* GLCD data function */
{
    2042:	df 93       	push	r29
    2044:	cf 93       	push	r28
    2046:	cd b7       	in	r28, 0x3d	; 61
    2048:	de b7       	in	r29, 0x3e	; 62
    204a:	e1 97       	sbiw	r28, 0x31	; 49
    204c:	0f b6       	in	r0, 0x3f	; 63
    204e:	f8 94       	cli
    2050:	de bf       	out	0x3e, r29	; 62
    2052:	0f be       	out	0x3f, r0	; 63
    2054:	cd bf       	out	0x3d, r28	; 61
    2056:	89 ab       	std	Y+49, r24	; 0x31
    Data_Port = Data;           /* Copy data on data pin */
    2058:	eb e3       	ldi	r30, 0x3B	; 59
    205a:	f0 e0       	ldi	r31, 0x00	; 0
    205c:	89 a9       	ldd	r24, Y+49	; 0x31
    205e:	80 83       	st	Z, r24
    Command_Port |= (1 << RS);  /* Make RS HIGH to select data register */
    2060:	a5 e3       	ldi	r26, 0x35	; 53
    2062:	b0 e0       	ldi	r27, 0x00	; 0
    2064:	e5 e3       	ldi	r30, 0x35	; 53
    2066:	f0 e0       	ldi	r31, 0x00	; 0
    2068:	80 81       	ld	r24, Z
    206a:	81 60       	ori	r24, 0x01	; 1
    206c:	8c 93       	st	X, r24
    Command_Port &= ~(1 << RW); /* Make RW LOW to select write operation */
    206e:	a5 e3       	ldi	r26, 0x35	; 53
    2070:	b0 e0       	ldi	r27, 0x00	; 0
    2072:	e5 e3       	ldi	r30, 0x35	; 53
    2074:	f0 e0       	ldi	r31, 0x00	; 0
    2076:	80 81       	ld	r24, Z
    2078:	8d 7f       	andi	r24, 0xFD	; 253
    207a:	8c 93       	st	X, r24
    Command_Port |= (1 << EN);  /* Make HIGH to LOW transition on Enable pin */
    207c:	a5 e3       	ldi	r26, 0x35	; 53
    207e:	b0 e0       	ldi	r27, 0x00	; 0
    2080:	e5 e3       	ldi	r30, 0x35	; 53
    2082:	f0 e0       	ldi	r31, 0x00	; 0
    2084:	80 81       	ld	r24, Z
    2086:	84 60       	ori	r24, 0x04	; 4
    2088:	8c 93       	st	X, r24
    208a:	80 e0       	ldi	r24, 0x00	; 0
    208c:	90 e0       	ldi	r25, 0x00	; 0
    208e:	a0 ea       	ldi	r26, 0xA0	; 160
    2090:	b0 e4       	ldi	r27, 0x40	; 64
    2092:	8d a7       	std	Y+45, r24	; 0x2d
    2094:	9e a7       	std	Y+46, r25	; 0x2e
    2096:	af a7       	std	Y+47, r26	; 0x2f
    2098:	b8 ab       	std	Y+48, r27	; 0x30
 */
void
_delay_us(double __us)
{
	uint8_t __ticks;
	double __tmp = ((F_CPU) / 3e6) * __us;
    209a:	6d a5       	ldd	r22, Y+45	; 0x2d
    209c:	7e a5       	ldd	r23, Y+46	; 0x2e
    209e:	8f a5       	ldd	r24, Y+47	; 0x2f
    20a0:	98 a9       	ldd	r25, Y+48	; 0x30
    20a2:	2b ea       	ldi	r18, 0xAB	; 171
    20a4:	3a ea       	ldi	r19, 0xAA	; 170
    20a6:	4a e2       	ldi	r20, 0x2A	; 42
    20a8:	50 e4       	ldi	r21, 0x40	; 64
    20aa:	0e 94 17 02 	call	0x42e	; 0x42e <__mulsf3>
    20ae:	dc 01       	movw	r26, r24
    20b0:	cb 01       	movw	r24, r22
    20b2:	89 a7       	std	Y+41, r24	; 0x29
    20b4:	9a a7       	std	Y+42, r25	; 0x2a
    20b6:	ab a7       	std	Y+43, r26	; 0x2b
    20b8:	bc a7       	std	Y+44, r27	; 0x2c
	if (__tmp < 1.0)
    20ba:	69 a5       	ldd	r22, Y+41	; 0x29
    20bc:	7a a5       	ldd	r23, Y+42	; 0x2a
    20be:	8b a5       	ldd	r24, Y+43	; 0x2b
    20c0:	9c a5       	ldd	r25, Y+44	; 0x2c
    20c2:	20 e0       	ldi	r18, 0x00	; 0
    20c4:	30 e0       	ldi	r19, 0x00	; 0
    20c6:	40 e8       	ldi	r20, 0x80	; 128
    20c8:	5f e3       	ldi	r21, 0x3F	; 63
    20ca:	0e 94 1d 04 	call	0x83a	; 0x83a <__ltsf2>
    20ce:	88 23       	and	r24, r24
    20d0:	1c f4       	brge	.+6      	; 0x20d8 <GLCD_Data+0x96>
		__ticks = 1;
    20d2:	81 e0       	ldi	r24, 0x01	; 1
    20d4:	88 a7       	std	Y+40, r24	; 0x28
    20d6:	91 c0       	rjmp	.+290    	; 0x21fa <GLCD_Data+0x1b8>
	else if (__tmp > 255)
    20d8:	69 a5       	ldd	r22, Y+41	; 0x29
    20da:	7a a5       	ldd	r23, Y+42	; 0x2a
    20dc:	8b a5       	ldd	r24, Y+43	; 0x2b
    20de:	9c a5       	ldd	r25, Y+44	; 0x2c
    20e0:	20 e0       	ldi	r18, 0x00	; 0
    20e2:	30 e0       	ldi	r19, 0x00	; 0
    20e4:	4f e7       	ldi	r20, 0x7F	; 127
    20e6:	53 e4       	ldi	r21, 0x43	; 67
    20e8:	0e 94 bd 03 	call	0x77a	; 0x77a <__gtsf2>
    20ec:	18 16       	cp	r1, r24
    20ee:	0c f0       	brlt	.+2      	; 0x20f2 <GLCD_Data+0xb0>
    20f0:	7b c0       	rjmp	.+246    	; 0x21e8 <GLCD_Data+0x1a6>
	{
		_delay_ms(__us / 1000.0);
    20f2:	6d a5       	ldd	r22, Y+45	; 0x2d
    20f4:	7e a5       	ldd	r23, Y+46	; 0x2e
    20f6:	8f a5       	ldd	r24, Y+47	; 0x2f
    20f8:	98 a9       	ldd	r25, Y+48	; 0x30
    20fa:	20 e0       	ldi	r18, 0x00	; 0
    20fc:	30 e0       	ldi	r19, 0x00	; 0
    20fe:	4a e7       	ldi	r20, 0x7A	; 122
    2100:	54 e4       	ldi	r21, 0x44	; 68
    2102:	0e 94 11 03 	call	0x622	; 0x622 <__divsf3>
    2106:	dc 01       	movw	r26, r24
    2108:	cb 01       	movw	r24, r22
    210a:	8c a3       	std	Y+36, r24	; 0x24
    210c:	9d a3       	std	Y+37, r25	; 0x25
    210e:	ae a3       	std	Y+38, r26	; 0x26
    2110:	bf a3       	std	Y+39, r27	; 0x27
 */
void
_delay_ms(double __ms)
{
	uint16_t __ticks;
	double __tmp = ((F_CPU) / 4e3) * __ms;
    2112:	6c a1       	ldd	r22, Y+36	; 0x24
    2114:	7d a1       	ldd	r23, Y+37	; 0x25
    2116:	8e a1       	ldd	r24, Y+38	; 0x26
    2118:	9f a1       	ldd	r25, Y+39	; 0x27
    211a:	20 e0       	ldi	r18, 0x00	; 0
    211c:	30 e0       	ldi	r19, 0x00	; 0
    211e:	4a ef       	ldi	r20, 0xFA	; 250
    2120:	54 e4       	ldi	r21, 0x44	; 68
    2122:	0e 94 17 02 	call	0x42e	; 0x42e <__mulsf3>
    2126:	dc 01       	movw	r26, r24
    2128:	cb 01       	movw	r24, r22
    212a:	88 a3       	std	Y+32, r24	; 0x20
    212c:	99 a3       	std	Y+33, r25	; 0x21
    212e:	aa a3       	std	Y+34, r26	; 0x22
    2130:	bb a3       	std	Y+35, r27	; 0x23
	if (__tmp < 1.0)
    2132:	68 a1       	ldd	r22, Y+32	; 0x20
    2134:	79 a1       	ldd	r23, Y+33	; 0x21
    2136:	8a a1       	ldd	r24, Y+34	; 0x22
    2138:	9b a1       	ldd	r25, Y+35	; 0x23
    213a:	20 e0       	ldi	r18, 0x00	; 0
    213c:	30 e0       	ldi	r19, 0x00	; 0
    213e:	40 e8       	ldi	r20, 0x80	; 128
    2140:	5f e3       	ldi	r21, 0x3F	; 63
    2142:	0e 94 1d 04 	call	0x83a	; 0x83a <__ltsf2>
    2146:	88 23       	and	r24, r24
    2148:	2c f4       	brge	.+10     	; 0x2154 <GLCD_Data+0x112>
		__ticks = 1;
    214a:	81 e0       	ldi	r24, 0x01	; 1
    214c:	90 e0       	ldi	r25, 0x00	; 0
    214e:	9f 8f       	std	Y+31, r25	; 0x1f
    2150:	8e 8f       	std	Y+30, r24	; 0x1e
    2152:	3f c0       	rjmp	.+126    	; 0x21d2 <GLCD_Data+0x190>
	else if (__tmp > 65535)
    2154:	68 a1       	ldd	r22, Y+32	; 0x20
    2156:	79 a1       	ldd	r23, Y+33	; 0x21
    2158:	8a a1       	ldd	r24, Y+34	; 0x22
    215a:	9b a1       	ldd	r25, Y+35	; 0x23
    215c:	20 e0       	ldi	r18, 0x00	; 0
    215e:	3f ef       	ldi	r19, 0xFF	; 255
    2160:	4f e7       	ldi	r20, 0x7F	; 127
    2162:	57 e4       	ldi	r21, 0x47	; 71
    2164:	0e 94 bd 03 	call	0x77a	; 0x77a <__gtsf2>
    2168:	18 16       	cp	r1, r24
    216a:	4c f5       	brge	.+82     	; 0x21be <GLCD_Data+0x17c>
	{
		//	__ticks = requested delay in 1/10 ms
		__ticks = (uint16_t) (__ms * 10.0);
    216c:	6c a1       	ldd	r22, Y+36	; 0x24
    216e:	7d a1       	ldd	r23, Y+37	; 0x25
    2170:	8e a1       	ldd	r24, Y+38	; 0x26
    2172:	9f a1       	ldd	r25, Y+39	; 0x27
    2174:	20 e0       	ldi	r18, 0x00	; 0
    2176:	30 e0       	ldi	r19, 0x00	; 0
    2178:	40 e2       	ldi	r20, 0x20	; 32
    217a:	51 e4       	ldi	r21, 0x41	; 65
    217c:	0e 94 17 02 	call	0x42e	; 0x42e <__mulsf3>
    2180:	dc 01       	movw	r26, r24
    2182:	cb 01       	movw	r24, r22
    2184:	bc 01       	movw	r22, r24
    2186:	cd 01       	movw	r24, r26
    2188:	0e 94 41 00 	call	0x82	; 0x82 <__fixunssfsi>
    218c:	dc 01       	movw	r26, r24
    218e:	cb 01       	movw	r24, r22
    2190:	9f 8f       	std	Y+31, r25	; 0x1f
    2192:	8e 8f       	std	Y+30, r24	; 0x1e
    2194:	0f c0       	rjmp	.+30     	; 0x21b4 <GLCD_Data+0x172>
    2196:	88 ec       	ldi	r24, 0xC8	; 200
    2198:	90 e0       	ldi	r25, 0x00	; 0
    219a:	9d 8f       	std	Y+29, r25	; 0x1d
    219c:	8c 8f       	std	Y+28, r24	; 0x1c
    milliseconds can be achieved.
 */
void
_delay_loop_2(uint16_t __count)
{
	__asm__ volatile (
    219e:	8c 8d       	ldd	r24, Y+28	; 0x1c
    21a0:	9d 8d       	ldd	r25, Y+29	; 0x1d
    21a2:	01 97       	sbiw	r24, 0x01	; 1
    21a4:	f1 f7       	brne	.-4      	; 0x21a2 <GLCD_Data+0x160>
    21a6:	9d 8f       	std	Y+29, r25	; 0x1d
    21a8:	8c 8f       	std	Y+28, r24	; 0x1c
		while(__ticks)
		{
			// wait 1/10 ms
			_delay_loop_2(((F_CPU) / 4e3) / 10);
			__ticks --;
    21aa:	8e 8d       	ldd	r24, Y+30	; 0x1e
    21ac:	9f 8d       	ldd	r25, Y+31	; 0x1f
    21ae:	01 97       	sbiw	r24, 0x01	; 1
    21b0:	9f 8f       	std	Y+31, r25	; 0x1f
    21b2:	8e 8f       	std	Y+30, r24	; 0x1e
		__ticks = 1;
	else if (__tmp > 65535)
	{
		//	__ticks = requested delay in 1/10 ms
		__ticks = (uint16_t) (__ms * 10.0);
		while(__ticks)
    21b4:	8e 8d       	ldd	r24, Y+30	; 0x1e
    21b6:	9f 8d       	ldd	r25, Y+31	; 0x1f
    21b8:	00 97       	sbiw	r24, 0x00	; 0
    21ba:	69 f7       	brne	.-38     	; 0x2196 <GLCD_Data+0x154>
    21bc:	24 c0       	rjmp	.+72     	; 0x2206 <GLCD_Data+0x1c4>
			__ticks --;
		}
		return;
	}
	else
		__ticks = (uint16_t)__tmp;
    21be:	68 a1       	ldd	r22, Y+32	; 0x20
    21c0:	79 a1       	ldd	r23, Y+33	; 0x21
    21c2:	8a a1       	ldd	r24, Y+34	; 0x22
    21c4:	9b a1       	ldd	r25, Y+35	; 0x23
    21c6:	0e 94 41 00 	call	0x82	; 0x82 <__fixunssfsi>
    21ca:	dc 01       	movw	r26, r24
    21cc:	cb 01       	movw	r24, r22
    21ce:	9f 8f       	std	Y+31, r25	; 0x1f
    21d0:	8e 8f       	std	Y+30, r24	; 0x1e
    21d2:	8e 8d       	ldd	r24, Y+30	; 0x1e
    21d4:	9f 8d       	ldd	r25, Y+31	; 0x1f
    21d6:	9b 8f       	std	Y+27, r25	; 0x1b
    21d8:	8a 8f       	std	Y+26, r24	; 0x1a
    21da:	8a 8d       	ldd	r24, Y+26	; 0x1a
    21dc:	9b 8d       	ldd	r25, Y+27	; 0x1b
    21de:	01 97       	sbiw	r24, 0x01	; 1
    21e0:	f1 f7       	brne	.-4      	; 0x21de <GLCD_Data+0x19c>
    21e2:	9b 8f       	std	Y+27, r25	; 0x1b
    21e4:	8a 8f       	std	Y+26, r24	; 0x1a
    21e6:	0f c0       	rjmp	.+30     	; 0x2206 <GLCD_Data+0x1c4>
	{
		_delay_ms(__us / 1000.0);
		return;
	}
	else
		__ticks = (uint8_t)__tmp;
    21e8:	69 a5       	ldd	r22, Y+41	; 0x29
    21ea:	7a a5       	ldd	r23, Y+42	; 0x2a
    21ec:	8b a5       	ldd	r24, Y+43	; 0x2b
    21ee:	9c a5       	ldd	r25, Y+44	; 0x2c
    21f0:	0e 94 41 00 	call	0x82	; 0x82 <__fixunssfsi>
    21f4:	dc 01       	movw	r26, r24
    21f6:	cb 01       	movw	r24, r22
    21f8:	88 a7       	std	Y+40, r24	; 0x28
    21fa:	88 a5       	ldd	r24, Y+40	; 0x28
    21fc:	89 8f       	std	Y+25, r24	; 0x19
    can be achieved.
*/
void
_delay_loop_1(uint8_t __count)
{
	__asm__ volatile (
    21fe:	89 8d       	ldd	r24, Y+25	; 0x19
    2200:	8a 95       	dec	r24
    2202:	f1 f7       	brne	.-4      	; 0x2200 <GLCD_Data+0x1be>
    2204:	89 8f       	std	Y+25, r24	; 0x19
    _delay_us(5);
    Command_Port &= ~(1 << EN);
    2206:	a5 e3       	ldi	r26, 0x35	; 53
    2208:	b0 e0       	ldi	r27, 0x00	; 0
    220a:	e5 e3       	ldi	r30, 0x35	; 53
    220c:	f0 e0       	ldi	r31, 0x00	; 0
    220e:	80 81       	ld	r24, Z
    2210:	8b 7f       	andi	r24, 0xFB	; 251
    2212:	8c 93       	st	X, r24
    2214:	80 e0       	ldi	r24, 0x00	; 0
    2216:	90 e0       	ldi	r25, 0x00	; 0
    2218:	a0 ea       	ldi	r26, 0xA0	; 160
    221a:	b0 e4       	ldi	r27, 0x40	; 64
    221c:	8d 8b       	std	Y+21, r24	; 0x15
    221e:	9e 8b       	std	Y+22, r25	; 0x16
    2220:	af 8b       	std	Y+23, r26	; 0x17
    2222:	b8 8f       	std	Y+24, r27	; 0x18
 */
void
_delay_us(double __us)
{
	uint8_t __ticks;
	double __tmp = ((F_CPU) / 3e6) * __us;
    2224:	6d 89       	ldd	r22, Y+21	; 0x15
    2226:	7e 89       	ldd	r23, Y+22	; 0x16
    2228:	8f 89       	ldd	r24, Y+23	; 0x17
    222a:	98 8d       	ldd	r25, Y+24	; 0x18
    222c:	2b ea       	ldi	r18, 0xAB	; 171
    222e:	3a ea       	ldi	r19, 0xAA	; 170
    2230:	4a e2       	ldi	r20, 0x2A	; 42
    2232:	50 e4       	ldi	r21, 0x40	; 64
    2234:	0e 94 17 02 	call	0x42e	; 0x42e <__mulsf3>
    2238:	dc 01       	movw	r26, r24
    223a:	cb 01       	movw	r24, r22
    223c:	89 8b       	std	Y+17, r24	; 0x11
    223e:	9a 8b       	std	Y+18, r25	; 0x12
    2240:	ab 8b       	std	Y+19, r26	; 0x13
    2242:	bc 8b       	std	Y+20, r27	; 0x14
	if (__tmp < 1.0)
    2244:	69 89       	ldd	r22, Y+17	; 0x11
    2246:	7a 89       	ldd	r23, Y+18	; 0x12
    2248:	8b 89       	ldd	r24, Y+19	; 0x13
    224a:	9c 89       	ldd	r25, Y+20	; 0x14
    224c:	20 e0       	ldi	r18, 0x00	; 0
    224e:	30 e0       	ldi	r19, 0x00	; 0
    2250:	40 e8       	ldi	r20, 0x80	; 128
    2252:	5f e3       	ldi	r21, 0x3F	; 63
    2254:	0e 94 1d 04 	call	0x83a	; 0x83a <__ltsf2>
    2258:	88 23       	and	r24, r24
    225a:	1c f4       	brge	.+6      	; 0x2262 <GLCD_Data+0x220>
		__ticks = 1;
    225c:	81 e0       	ldi	r24, 0x01	; 1
    225e:	88 8b       	std	Y+16, r24	; 0x10
    2260:	91 c0       	rjmp	.+290    	; 0x2384 <GLCD_Data+0x342>
	else if (__tmp > 255)
    2262:	69 89       	ldd	r22, Y+17	; 0x11
    2264:	7a 89       	ldd	r23, Y+18	; 0x12
    2266:	8b 89       	ldd	r24, Y+19	; 0x13
    2268:	9c 89       	ldd	r25, Y+20	; 0x14
    226a:	20 e0       	ldi	r18, 0x00	; 0
    226c:	30 e0       	ldi	r19, 0x00	; 0
    226e:	4f e7       	ldi	r20, 0x7F	; 127
    2270:	53 e4       	ldi	r21, 0x43	; 67
    2272:	0e 94 bd 03 	call	0x77a	; 0x77a <__gtsf2>
    2276:	18 16       	cp	r1, r24
    2278:	0c f0       	brlt	.+2      	; 0x227c <GLCD_Data+0x23a>
    227a:	7b c0       	rjmp	.+246    	; 0x2372 <GLCD_Data+0x330>
	{
		_delay_ms(__us / 1000.0);
    227c:	6d 89       	ldd	r22, Y+21	; 0x15
    227e:	7e 89       	ldd	r23, Y+22	; 0x16
    2280:	8f 89       	ldd	r24, Y+23	; 0x17
    2282:	98 8d       	ldd	r25, Y+24	; 0x18
    2284:	20 e0       	ldi	r18, 0x00	; 0
    2286:	30 e0       	ldi	r19, 0x00	; 0
    2288:	4a e7       	ldi	r20, 0x7A	; 122
    228a:	54 e4       	ldi	r21, 0x44	; 68
    228c:	0e 94 11 03 	call	0x622	; 0x622 <__divsf3>
    2290:	dc 01       	movw	r26, r24
    2292:	cb 01       	movw	r24, r22
    2294:	8c 87       	std	Y+12, r24	; 0x0c
    2296:	9d 87       	std	Y+13, r25	; 0x0d
    2298:	ae 87       	std	Y+14, r26	; 0x0e
    229a:	bf 87       	std	Y+15, r27	; 0x0f
 */
void
_delay_ms(double __ms)
{
	uint16_t __ticks;
	double __tmp = ((F_CPU) / 4e3) * __ms;
    229c:	6c 85       	ldd	r22, Y+12	; 0x0c
    229e:	7d 85       	ldd	r23, Y+13	; 0x0d
    22a0:	8e 85       	ldd	r24, Y+14	; 0x0e
    22a2:	9f 85       	ldd	r25, Y+15	; 0x0f
    22a4:	20 e0       	ldi	r18, 0x00	; 0
    22a6:	30 e0       	ldi	r19, 0x00	; 0
    22a8:	4a ef       	ldi	r20, 0xFA	; 250
    22aa:	54 e4       	ldi	r21, 0x44	; 68
    22ac:	0e 94 17 02 	call	0x42e	; 0x42e <__mulsf3>
    22b0:	dc 01       	movw	r26, r24
    22b2:	cb 01       	movw	r24, r22
    22b4:	88 87       	std	Y+8, r24	; 0x08
    22b6:	99 87       	std	Y+9, r25	; 0x09
    22b8:	aa 87       	std	Y+10, r26	; 0x0a
    22ba:	bb 87       	std	Y+11, r27	; 0x0b
	if (__tmp < 1.0)
    22bc:	68 85       	ldd	r22, Y+8	; 0x08
    22be:	79 85       	ldd	r23, Y+9	; 0x09
    22c0:	8a 85       	ldd	r24, Y+10	; 0x0a
    22c2:	9b 85       	ldd	r25, Y+11	; 0x0b
    22c4:	20 e0       	ldi	r18, 0x00	; 0
    22c6:	30 e0       	ldi	r19, 0x00	; 0
    22c8:	40 e8       	ldi	r20, 0x80	; 128
    22ca:	5f e3       	ldi	r21, 0x3F	; 63
    22cc:	0e 94 1d 04 	call	0x83a	; 0x83a <__ltsf2>
    22d0:	88 23       	and	r24, r24
    22d2:	2c f4       	brge	.+10     	; 0x22de <GLCD_Data+0x29c>
		__ticks = 1;
    22d4:	81 e0       	ldi	r24, 0x01	; 1
    22d6:	90 e0       	ldi	r25, 0x00	; 0
    22d8:	9f 83       	std	Y+7, r25	; 0x07
    22da:	8e 83       	std	Y+6, r24	; 0x06
    22dc:	3f c0       	rjmp	.+126    	; 0x235c <GLCD_Data+0x31a>
	else if (__tmp > 65535)
    22de:	68 85       	ldd	r22, Y+8	; 0x08
    22e0:	79 85       	ldd	r23, Y+9	; 0x09
    22e2:	8a 85       	ldd	r24, Y+10	; 0x0a
    22e4:	9b 85       	ldd	r25, Y+11	; 0x0b
    22e6:	20 e0       	ldi	r18, 0x00	; 0
    22e8:	3f ef       	ldi	r19, 0xFF	; 255
    22ea:	4f e7       	ldi	r20, 0x7F	; 127
    22ec:	57 e4       	ldi	r21, 0x47	; 71
    22ee:	0e 94 bd 03 	call	0x77a	; 0x77a <__gtsf2>
    22f2:	18 16       	cp	r1, r24
    22f4:	4c f5       	brge	.+82     	; 0x2348 <GLCD_Data+0x306>
	{
		//	__ticks = requested delay in 1/10 ms
		__ticks = (uint16_t) (__ms * 10.0);
    22f6:	6c 85       	ldd	r22, Y+12	; 0x0c
    22f8:	7d 85       	ldd	r23, Y+13	; 0x0d
    22fa:	8e 85       	ldd	r24, Y+14	; 0x0e
    22fc:	9f 85       	ldd	r25, Y+15	; 0x0f
    22fe:	20 e0       	ldi	r18, 0x00	; 0
    2300:	30 e0       	ldi	r19, 0x00	; 0
    2302:	40 e2       	ldi	r20, 0x20	; 32
    2304:	51 e4       	ldi	r21, 0x41	; 65
    2306:	0e 94 17 02 	call	0x42e	; 0x42e <__mulsf3>
    230a:	dc 01       	movw	r26, r24
    230c:	cb 01       	movw	r24, r22
    230e:	bc 01       	movw	r22, r24
    2310:	cd 01       	movw	r24, r26
    2312:	0e 94 41 00 	call	0x82	; 0x82 <__fixunssfsi>
    2316:	dc 01       	movw	r26, r24
    2318:	cb 01       	movw	r24, r22
    231a:	9f 83       	std	Y+7, r25	; 0x07
    231c:	8e 83       	std	Y+6, r24	; 0x06
    231e:	0f c0       	rjmp	.+30     	; 0x233e <GLCD_Data+0x2fc>
    2320:	88 ec       	ldi	r24, 0xC8	; 200
    2322:	90 e0       	ldi	r25, 0x00	; 0
    2324:	9d 83       	std	Y+5, r25	; 0x05
    2326:	8c 83       	std	Y+4, r24	; 0x04
    milliseconds can be achieved.
 */
void
_delay_loop_2(uint16_t __count)
{
	__asm__ volatile (
    2328:	8c 81       	ldd	r24, Y+4	; 0x04
    232a:	9d 81       	ldd	r25, Y+5	; 0x05
    232c:	01 97       	sbiw	r24, 0x01	; 1
    232e:	f1 f7       	brne	.-4      	; 0x232c <GLCD_Data+0x2ea>
    2330:	9d 83       	std	Y+5, r25	; 0x05
    2332:	8c 83       	std	Y+4, r24	; 0x04
		while(__ticks)
		{
			// wait 1/10 ms
			_delay_loop_2(((F_CPU) / 4e3) / 10);
			__ticks --;
    2334:	8e 81       	ldd	r24, Y+6	; 0x06
    2336:	9f 81       	ldd	r25, Y+7	; 0x07
    2338:	01 97       	sbiw	r24, 0x01	; 1
    233a:	9f 83       	std	Y+7, r25	; 0x07
    233c:	8e 83       	std	Y+6, r24	; 0x06
		__ticks = 1;
	else if (__tmp > 65535)
	{
		//	__ticks = requested delay in 1/10 ms
		__ticks = (uint16_t) (__ms * 10.0);
		while(__ticks)
    233e:	8e 81       	ldd	r24, Y+6	; 0x06
    2340:	9f 81       	ldd	r25, Y+7	; 0x07
    2342:	00 97       	sbiw	r24, 0x00	; 0
    2344:	69 f7       	brne	.-38     	; 0x2320 <GLCD_Data+0x2de>
    2346:	24 c0       	rjmp	.+72     	; 0x2390 <GLCD_Data+0x34e>
			__ticks --;
		}
		return;
	}
	else
		__ticks = (uint16_t)__tmp;
    2348:	68 85       	ldd	r22, Y+8	; 0x08
    234a:	79 85       	ldd	r23, Y+9	; 0x09
    234c:	8a 85       	ldd	r24, Y+10	; 0x0a
    234e:	9b 85       	ldd	r25, Y+11	; 0x0b
    2350:	0e 94 41 00 	call	0x82	; 0x82 <__fixunssfsi>
    2354:	dc 01       	movw	r26, r24
    2356:	cb 01       	movw	r24, r22
    2358:	9f 83       	std	Y+7, r25	; 0x07
    235a:	8e 83       	std	Y+6, r24	; 0x06
    235c:	8e 81       	ldd	r24, Y+6	; 0x06
    235e:	9f 81       	ldd	r25, Y+7	; 0x07
    2360:	9b 83       	std	Y+3, r25	; 0x03
    2362:	8a 83       	std	Y+2, r24	; 0x02
    2364:	8a 81       	ldd	r24, Y+2	; 0x02
    2366:	9b 81       	ldd	r25, Y+3	; 0x03
    2368:	01 97       	sbiw	r24, 0x01	; 1
    236a:	f1 f7       	brne	.-4      	; 0x2368 <GLCD_Data+0x326>
    236c:	9b 83       	std	Y+3, r25	; 0x03
    236e:	8a 83       	std	Y+2, r24	; 0x02
    2370:	0f c0       	rjmp	.+30     	; 0x2390 <GLCD_Data+0x34e>
	{
		_delay_ms(__us / 1000.0);
		return;
	}
	else
		__ticks = (uint8_t)__tmp;
    2372:	69 89       	ldd	r22, Y+17	; 0x11
    2374:	7a 89       	ldd	r23, Y+18	; 0x12
    2376:	8b 89       	ldd	r24, Y+19	; 0x13
    2378:	9c 89       	ldd	r25, Y+20	; 0x14
    237a:	0e 94 41 00 	call	0x82	; 0x82 <__fixunssfsi>
    237e:	dc 01       	movw	r26, r24
    2380:	cb 01       	movw	r24, r22
    2382:	88 8b       	std	Y+16, r24	; 0x10
    2384:	88 89       	ldd	r24, Y+16	; 0x10
    2386:	89 83       	std	Y+1, r24	; 0x01
    can be achieved.
*/
void
_delay_loop_1(uint8_t __count)
{
	__asm__ volatile (
    2388:	89 81       	ldd	r24, Y+1	; 0x01
    238a:	8a 95       	dec	r24
    238c:	f1 f7       	brne	.-4      	; 0x238a <GLCD_Data+0x348>
    238e:	89 83       	std	Y+1, r24	; 0x01
    _delay_us(5);
}
    2390:	e1 96       	adiw	r28, 0x31	; 49
    2392:	0f b6       	in	r0, 0x3f	; 63
    2394:	f8 94       	cli
    2396:	de bf       	out	0x3e, r29	; 62
    2398:	0f be       	out	0x3f, r0	; 63
    239a:	cd bf       	out	0x3d, r28	; 61
    239c:	cf 91       	pop	r28
    239e:	df 91       	pop	r29
    23a0:	08 95       	ret

000023a2 <GLCD_Init>:

void GLCD_Init() /* GLCD initialize function */
{
    23a2:	df 93       	push	r29
    23a4:	cf 93       	push	r28
    23a6:	cd b7       	in	r28, 0x3d	; 61
    23a8:	de b7       	in	r29, 0x3e	; 62
    23aa:	2e 97       	sbiw	r28, 0x0e	; 14
    23ac:	0f b6       	in	r0, 0x3f	; 63
    23ae:	f8 94       	cli
    23b0:	de bf       	out	0x3e, r29	; 62
    23b2:	0f be       	out	0x3f, r0	; 63
    23b4:	cd bf       	out	0x3d, r28	; 61
    Data_Port_Dir = 0xFF;
    23b6:	ea e3       	ldi	r30, 0x3A	; 58
    23b8:	f0 e0       	ldi	r31, 0x00	; 0
    23ba:	8f ef       	ldi	r24, 0xFF	; 255
    23bc:	80 83       	st	Z, r24
    Command_Port_Dir = 0xFF;
    23be:	e4 e3       	ldi	r30, 0x34	; 52
    23c0:	f0 e0       	ldi	r31, 0x00	; 0
    23c2:	8f ef       	ldi	r24, 0xFF	; 255
    23c4:	80 83       	st	Z, r24
    /* Select both left & right half of display & Keep reset pin high */
    Command_Port |= (1 << CS1) | (1 << CS2) | (1 << RST);
    23c6:	a5 e3       	ldi	r26, 0x35	; 53
    23c8:	b0 e0       	ldi	r27, 0x00	; 0
    23ca:	e5 e3       	ldi	r30, 0x35	; 53
    23cc:	f0 e0       	ldi	r31, 0x00	; 0
    23ce:	80 81       	ld	r24, Z
    23d0:	88 63       	ori	r24, 0x38	; 56
    23d2:	8c 93       	st	X, r24
    23d4:	80 e0       	ldi	r24, 0x00	; 0
    23d6:	90 e0       	ldi	r25, 0x00	; 0
    23d8:	a0 ea       	ldi	r26, 0xA0	; 160
    23da:	b1 e4       	ldi	r27, 0x41	; 65
    23dc:	8b 87       	std	Y+11, r24	; 0x0b
    23de:	9c 87       	std	Y+12, r25	; 0x0c
    23e0:	ad 87       	std	Y+13, r26	; 0x0d
    23e2:	be 87       	std	Y+14, r27	; 0x0e
 */
void
_delay_ms(double __ms)
{
	uint16_t __ticks;
	double __tmp = ((F_CPU) / 4e3) * __ms;
    23e4:	6b 85       	ldd	r22, Y+11	; 0x0b
    23e6:	7c 85       	ldd	r23, Y+12	; 0x0c
    23e8:	8d 85       	ldd	r24, Y+13	; 0x0d
    23ea:	9e 85       	ldd	r25, Y+14	; 0x0e
    23ec:	20 e0       	ldi	r18, 0x00	; 0
    23ee:	30 e0       	ldi	r19, 0x00	; 0
    23f0:	4a ef       	ldi	r20, 0xFA	; 250
    23f2:	54 e4       	ldi	r21, 0x44	; 68
    23f4:	0e 94 17 02 	call	0x42e	; 0x42e <__mulsf3>
    23f8:	dc 01       	movw	r26, r24
    23fa:	cb 01       	movw	r24, r22
    23fc:	8f 83       	std	Y+7, r24	; 0x07
    23fe:	98 87       	std	Y+8, r25	; 0x08
    2400:	a9 87       	std	Y+9, r26	; 0x09
    2402:	ba 87       	std	Y+10, r27	; 0x0a
	if (__tmp < 1.0)
    2404:	6f 81       	ldd	r22, Y+7	; 0x07
    2406:	78 85       	ldd	r23, Y+8	; 0x08
    2408:	89 85       	ldd	r24, Y+9	; 0x09
    240a:	9a 85       	ldd	r25, Y+10	; 0x0a
    240c:	20 e0       	ldi	r18, 0x00	; 0
    240e:	30 e0       	ldi	r19, 0x00	; 0
    2410:	40 e8       	ldi	r20, 0x80	; 128
    2412:	5f e3       	ldi	r21, 0x3F	; 63
    2414:	0e 94 1d 04 	call	0x83a	; 0x83a <__ltsf2>
    2418:	88 23       	and	r24, r24
    241a:	2c f4       	brge	.+10     	; 0x2426 <GLCD_Init+0x84>
		__ticks = 1;
    241c:	81 e0       	ldi	r24, 0x01	; 1
    241e:	90 e0       	ldi	r25, 0x00	; 0
    2420:	9e 83       	std	Y+6, r25	; 0x06
    2422:	8d 83       	std	Y+5, r24	; 0x05
    2424:	3f c0       	rjmp	.+126    	; 0x24a4 <GLCD_Init+0x102>
	else if (__tmp > 65535)
    2426:	6f 81       	ldd	r22, Y+7	; 0x07
    2428:	78 85       	ldd	r23, Y+8	; 0x08
    242a:	89 85       	ldd	r24, Y+9	; 0x09
    242c:	9a 85       	ldd	r25, Y+10	; 0x0a
    242e:	20 e0       	ldi	r18, 0x00	; 0
    2430:	3f ef       	ldi	r19, 0xFF	; 255
    2432:	4f e7       	ldi	r20, 0x7F	; 127
    2434:	57 e4       	ldi	r21, 0x47	; 71
    2436:	0e 94 bd 03 	call	0x77a	; 0x77a <__gtsf2>
    243a:	18 16       	cp	r1, r24
    243c:	4c f5       	brge	.+82     	; 0x2490 <GLCD_Init+0xee>
	{
		//	__ticks = requested delay in 1/10 ms
		__ticks = (uint16_t) (__ms * 10.0);
    243e:	6b 85       	ldd	r22, Y+11	; 0x0b
    2440:	7c 85       	ldd	r23, Y+12	; 0x0c
    2442:	8d 85       	ldd	r24, Y+13	; 0x0d
    2444:	9e 85       	ldd	r25, Y+14	; 0x0e
    2446:	20 e0       	ldi	r18, 0x00	; 0
    2448:	30 e0       	ldi	r19, 0x00	; 0
    244a:	40 e2       	ldi	r20, 0x20	; 32
    244c:	51 e4       	ldi	r21, 0x41	; 65
    244e:	0e 94 17 02 	call	0x42e	; 0x42e <__mulsf3>
    2452:	dc 01       	movw	r26, r24
    2454:	cb 01       	movw	r24, r22
    2456:	bc 01       	movw	r22, r24
    2458:	cd 01       	movw	r24, r26
    245a:	0e 94 41 00 	call	0x82	; 0x82 <__fixunssfsi>
    245e:	dc 01       	movw	r26, r24
    2460:	cb 01       	movw	r24, r22
    2462:	9e 83       	std	Y+6, r25	; 0x06
    2464:	8d 83       	std	Y+5, r24	; 0x05
    2466:	0f c0       	rjmp	.+30     	; 0x2486 <GLCD_Init+0xe4>
    2468:	88 ec       	ldi	r24, 0xC8	; 200
    246a:	90 e0       	ldi	r25, 0x00	; 0
    246c:	9c 83       	std	Y+4, r25	; 0x04
    246e:	8b 83       	std	Y+3, r24	; 0x03
    milliseconds can be achieved.
 */
void
_delay_loop_2(uint16_t __count)
{
	__asm__ volatile (
    2470:	8b 81       	ldd	r24, Y+3	; 0x03
    2472:	9c 81       	ldd	r25, Y+4	; 0x04
    2474:	01 97       	sbiw	r24, 0x01	; 1
    2476:	f1 f7       	brne	.-4      	; 0x2474 <GLCD_Init+0xd2>
    2478:	9c 83       	std	Y+4, r25	; 0x04
    247a:	8b 83       	std	Y+3, r24	; 0x03
		while(__ticks)
		{
			// wait 1/10 ms
			_delay_loop_2(((F_CPU) / 4e3) / 10);
			__ticks --;
    247c:	8d 81       	ldd	r24, Y+5	; 0x05
    247e:	9e 81       	ldd	r25, Y+6	; 0x06
    2480:	01 97       	sbiw	r24, 0x01	; 1
    2482:	9e 83       	std	Y+6, r25	; 0x06
    2484:	8d 83       	std	Y+5, r24	; 0x05
		__ticks = 1;
	else if (__tmp > 65535)
	{
		//	__ticks = requested delay in 1/10 ms
		__ticks = (uint16_t) (__ms * 10.0);
		while(__ticks)
    2486:	8d 81       	ldd	r24, Y+5	; 0x05
    2488:	9e 81       	ldd	r25, Y+6	; 0x06
    248a:	00 97       	sbiw	r24, 0x00	; 0
    248c:	69 f7       	brne	.-38     	; 0x2468 <GLCD_Init+0xc6>
    248e:	14 c0       	rjmp	.+40     	; 0x24b8 <GLCD_Init+0x116>
			__ticks --;
		}
		return;
	}
	else
		__ticks = (uint16_t)__tmp;
    2490:	6f 81       	ldd	r22, Y+7	; 0x07
    2492:	78 85       	ldd	r23, Y+8	; 0x08
    2494:	89 85       	ldd	r24, Y+9	; 0x09
    2496:	9a 85       	ldd	r25, Y+10	; 0x0a
    2498:	0e 94 41 00 	call	0x82	; 0x82 <__fixunssfsi>
    249c:	dc 01       	movw	r26, r24
    249e:	cb 01       	movw	r24, r22
    24a0:	9e 83       	std	Y+6, r25	; 0x06
    24a2:	8d 83       	std	Y+5, r24	; 0x05
    24a4:	8d 81       	ldd	r24, Y+5	; 0x05
    24a6:	9e 81       	ldd	r25, Y+6	; 0x06
    24a8:	9a 83       	std	Y+2, r25	; 0x02
    24aa:	89 83       	std	Y+1, r24	; 0x01
    24ac:	89 81       	ldd	r24, Y+1	; 0x01
    24ae:	9a 81       	ldd	r25, Y+2	; 0x02
    24b0:	01 97       	sbiw	r24, 0x01	; 1
    24b2:	f1 f7       	brne	.-4      	; 0x24b0 <GLCD_Init+0x10e>
    24b4:	9a 83       	std	Y+2, r25	; 0x02
    24b6:	89 83       	std	Y+1, r24	; 0x01
    _delay_ms(20);
    GLCD_Command(0x3E); /* Display OFF */
    24b8:	8e e3       	ldi	r24, 0x3E	; 62
    24ba:	0e 94 71 0e 	call	0x1ce2	; 0x1ce2 <GLCD_Command>
    GLCD_Command(0x40); /* Set Y address (column=0) */
    24be:	80 e4       	ldi	r24, 0x40	; 64
    24c0:	0e 94 71 0e 	call	0x1ce2	; 0x1ce2 <GLCD_Command>
    GLCD_Command(0xB8); /* Set x address (page=0) */
    24c4:	88 eb       	ldi	r24, 0xB8	; 184
    24c6:	0e 94 71 0e 	call	0x1ce2	; 0x1ce2 <GLCD_Command>
    GLCD_Command(0xC0); /* Set z address (start line=0) */
    24ca:	80 ec       	ldi	r24, 0xC0	; 192
    24cc:	0e 94 71 0e 	call	0x1ce2	; 0x1ce2 <GLCD_Command>
    GLCD_Command(0x3F); /* Display ON */
    24d0:	8f e3       	ldi	r24, 0x3F	; 63
    24d2:	0e 94 71 0e 	call	0x1ce2	; 0x1ce2 <GLCD_Command>
}
    24d6:	2e 96       	adiw	r28, 0x0e	; 14
    24d8:	0f b6       	in	r0, 0x3f	; 63
    24da:	f8 94       	cli
    24dc:	de bf       	out	0x3e, r29	; 62
    24de:	0f be       	out	0x3f, r0	; 63
    24e0:	cd bf       	out	0x3d, r28	; 61
    24e2:	cf 91       	pop	r28
    24e4:	df 91       	pop	r29
    24e6:	08 95       	ret

000024e8 <GLCD_ClearAll>:

void GLCD_ClearAll() /* GLCD all display clear function */
{
    24e8:	df 93       	push	r29
    24ea:	cf 93       	push	r28
    24ec:	00 d0       	rcall	.+0      	; 0x24ee <GLCD_ClearAll+0x6>
    24ee:	00 d0       	rcall	.+0      	; 0x24f0 <GLCD_ClearAll+0x8>
    24f0:	00 d0       	rcall	.+0      	; 0x24f2 <GLCD_ClearAll+0xa>
    24f2:	cd b7       	in	r28, 0x3d	; 61
    24f4:	de b7       	in	r29, 0x3e	; 62
    int i, j;
    /* Select both left & right half of display */
    // Command_Port |= (1 << CS1) | (1 << CS2);
    Command_Port |= (1 << CS2);
    24f6:	a5 e3       	ldi	r26, 0x35	; 53
    24f8:	b0 e0       	ldi	r27, 0x00	; 0
    24fa:	e5 e3       	ldi	r30, 0x35	; 53
    24fc:	f0 e0       	ldi	r31, 0x00	; 0
    24fe:	80 81       	ld	r24, Z
    2500:	80 61       	ori	r24, 0x10	; 16
    2502:	8c 93       	st	X, r24
    Command_Port &= ~(1 << CS1);
    2504:	a5 e3       	ldi	r26, 0x35	; 53
    2506:	b0 e0       	ldi	r27, 0x00	; 0
    2508:	e5 e3       	ldi	r30, 0x35	; 53
    250a:	f0 e0       	ldi	r31, 0x00	; 0
    250c:	80 81       	ld	r24, Z
    250e:	87 7f       	andi	r24, 0xF7	; 247
    2510:	8c 93       	st	X, r24
    for (int q = 0; q < 2; q++)
    2512:	1a 82       	std	Y+2, r1	; 0x02
    2514:	19 82       	std	Y+1, r1	; 0x01
    2516:	34 c0       	rjmp	.+104    	; 0x2580 <GLCD_ClearAll+0x98>
    {
        for (i = 0; i < TotalPage; i++)
    2518:	1e 82       	std	Y+6, r1	; 0x06
    251a:	1d 82       	std	Y+5, r1	; 0x05
    251c:	19 c0       	rjmp	.+50     	; 0x2550 <GLCD_ClearAll+0x68>
        {
            GLCD_Command((0xB8) + i); /* Increment page each time after 64 column */
    251e:	8d 81       	ldd	r24, Y+5	; 0x05
    2520:	88 54       	subi	r24, 0x48	; 72
    2522:	0e 94 71 0e 	call	0x1ce2	; 0x1ce2 <GLCD_Command>
            for (j = 0; j < 64; j++)
    2526:	1c 82       	std	Y+4, r1	; 0x04
    2528:	1b 82       	std	Y+3, r1	; 0x03
    252a:	08 c0       	rjmp	.+16     	; 0x253c <GLCD_ClearAll+0x54>
            {
                GLCD_Data(0); /* Write zeros to all 64 column */
    252c:	80 e0       	ldi	r24, 0x00	; 0
    252e:	0e 94 21 10 	call	0x2042	; 0x2042 <GLCD_Data>
    for (int q = 0; q < 2; q++)
    {
        for (i = 0; i < TotalPage; i++)
        {
            GLCD_Command((0xB8) + i); /* Increment page each time after 64 column */
            for (j = 0; j < 64; j++)
    2532:	8b 81       	ldd	r24, Y+3	; 0x03
    2534:	9c 81       	ldd	r25, Y+4	; 0x04
    2536:	01 96       	adiw	r24, 0x01	; 1
    2538:	9c 83       	std	Y+4, r25	; 0x04
    253a:	8b 83       	std	Y+3, r24	; 0x03
    253c:	8b 81       	ldd	r24, Y+3	; 0x03
    253e:	9c 81       	ldd	r25, Y+4	; 0x04
    2540:	80 34       	cpi	r24, 0x40	; 64
    2542:	91 05       	cpc	r25, r1
    2544:	9c f3       	brlt	.-26     	; 0x252c <GLCD_ClearAll+0x44>
    // Command_Port |= (1 << CS1) | (1 << CS2);
    Command_Port |= (1 << CS2);
    Command_Port &= ~(1 << CS1);
    for (int q = 0; q < 2; q++)
    {
        for (i = 0; i < TotalPage; i++)
    2546:	8d 81       	ldd	r24, Y+5	; 0x05
    2548:	9e 81       	ldd	r25, Y+6	; 0x06
    254a:	01 96       	adiw	r24, 0x01	; 1
    254c:	9e 83       	std	Y+6, r25	; 0x06
    254e:	8d 83       	std	Y+5, r24	; 0x05
    2550:	8d 81       	ldd	r24, Y+5	; 0x05
    2552:	9e 81       	ldd	r25, Y+6	; 0x06
    2554:	88 30       	cpi	r24, 0x08	; 8
    2556:	91 05       	cpc	r25, r1
    2558:	14 f3       	brlt	.-60     	; 0x251e <GLCD_ClearAll+0x36>
            for (j = 0; j < 64; j++)
            {
                GLCD_Data(0); /* Write zeros to all 64 column */
            }
        }
        Command_Port |= (1 << CS1);
    255a:	a5 e3       	ldi	r26, 0x35	; 53
    255c:	b0 e0       	ldi	r27, 0x00	; 0
    255e:	e5 e3       	ldi	r30, 0x35	; 53
    2560:	f0 e0       	ldi	r31, 0x00	; 0
    2562:	80 81       	ld	r24, Z
    2564:	88 60       	ori	r24, 0x08	; 8
    2566:	8c 93       	st	X, r24
        Command_Port &= ~(1 << CS2);
    2568:	a5 e3       	ldi	r26, 0x35	; 53
    256a:	b0 e0       	ldi	r27, 0x00	; 0
    256c:	e5 e3       	ldi	r30, 0x35	; 53
    256e:	f0 e0       	ldi	r31, 0x00	; 0
    2570:	80 81       	ld	r24, Z
    2572:	8f 7e       	andi	r24, 0xEF	; 239
    2574:	8c 93       	st	X, r24
    int i, j;
    /* Select both left & right half of display */
    // Command_Port |= (1 << CS1) | (1 << CS2);
    Command_Port |= (1 << CS2);
    Command_Port &= ~(1 << CS1);
    for (int q = 0; q < 2; q++)
    2576:	89 81       	ldd	r24, Y+1	; 0x01
    2578:	9a 81       	ldd	r25, Y+2	; 0x02
    257a:	01 96       	adiw	r24, 0x01	; 1
    257c:	9a 83       	std	Y+2, r25	; 0x02
    257e:	89 83       	std	Y+1, r24	; 0x01
    2580:	89 81       	ldd	r24, Y+1	; 0x01
    2582:	9a 81       	ldd	r25, Y+2	; 0x02
    2584:	82 30       	cpi	r24, 0x02	; 2
    2586:	91 05       	cpc	r25, r1
    2588:	3c f2       	brlt	.-114    	; 0x2518 <GLCD_ClearAll+0x30>
            }
        }
        Command_Port |= (1 << CS1);
        Command_Port &= ~(1 << CS2);
    }
    GLCD_Command(0x40); /* Set Y address (column=0) */
    258a:	80 e4       	ldi	r24, 0x40	; 64
    258c:	0e 94 71 0e 	call	0x1ce2	; 0x1ce2 <GLCD_Command>
    GLCD_Command(0xB8); /* Set x address (page=0) */
    2590:	88 eb       	ldi	r24, 0xB8	; 184
    2592:	0e 94 71 0e 	call	0x1ce2	; 0x1ce2 <GLCD_Command>
}
    2596:	26 96       	adiw	r28, 0x06	; 6
    2598:	0f b6       	in	r0, 0x3f	; 63
    259a:	f8 94       	cli
    259c:	de bf       	out	0x3e, r29	; 62
    259e:	0f be       	out	0x3f, r0	; 63
    25a0:	cd bf       	out	0x3d, r28	; 61
    25a2:	cf 91       	pop	r28
    25a4:	df 91       	pop	r29
    25a6:	08 95       	ret

000025a8 <direction>:

void direction(dir d)
{
    25a8:	df 93       	push	r29
    25aa:	cf 93       	push	r28
    25ac:	0f 92       	push	r0
    25ae:	cd b7       	in	r28, 0x3d	; 61
    25b0:	de b7       	in	r29, 0x3e	; 62
    25b2:	89 83       	std	Y+1, r24	; 0x01
	if(d == left)
    25b4:	89 81       	ldd	r24, Y+1	; 0x01
    25b6:	88 23       	and	r24, r24
    25b8:	79 f4       	brne	.+30     	; 0x25d8 <direction+0x30>
	{
		Command_Port |= (1 << CS2);
    25ba:	a5 e3       	ldi	r26, 0x35	; 53
    25bc:	b0 e0       	ldi	r27, 0x00	; 0
    25be:	e5 e3       	ldi	r30, 0x35	; 53
    25c0:	f0 e0       	ldi	r31, 0x00	; 0
    25c2:	80 81       	ld	r24, Z
    25c4:	80 61       	ori	r24, 0x10	; 16
    25c6:	8c 93       	st	X, r24
		Command_Port &= ~(1 << CS1);
    25c8:	a5 e3       	ldi	r26, 0x35	; 53
    25ca:	b0 e0       	ldi	r27, 0x00	; 0
    25cc:	e5 e3       	ldi	r30, 0x35	; 53
    25ce:	f0 e0       	ldi	r31, 0x00	; 0
    25d0:	80 81       	ld	r24, Z
    25d2:	87 7f       	andi	r24, 0xF7	; 247
    25d4:	8c 93       	st	X, r24
    25d6:	0e c0       	rjmp	.+28     	; 0x25f4 <direction+0x4c>
	}
	else
	{
		Command_Port |= (1 << CS1);
    25d8:	a5 e3       	ldi	r26, 0x35	; 53
    25da:	b0 e0       	ldi	r27, 0x00	; 0
    25dc:	e5 e3       	ldi	r30, 0x35	; 53
    25de:	f0 e0       	ldi	r31, 0x00	; 0
    25e0:	80 81       	ld	r24, Z
    25e2:	88 60       	ori	r24, 0x08	; 8
    25e4:	8c 93       	st	X, r24
		Command_Port &= ~(1 << CS2);
    25e6:	a5 e3       	ldi	r26, 0x35	; 53
    25e8:	b0 e0       	ldi	r27, 0x00	; 0
    25ea:	e5 e3       	ldi	r30, 0x35	; 53
    25ec:	f0 e0       	ldi	r31, 0x00	; 0
    25ee:	80 81       	ld	r24, Z
    25f0:	8f 7e       	andi	r24, 0xEF	; 239
    25f2:	8c 93       	st	X, r24
	}
}
    25f4:	0f 90       	pop	r0
    25f6:	cf 91       	pop	r28
    25f8:	df 91       	pop	r29
    25fa:	08 95       	ret

000025fc <clearline>:
void clearline(axis a, int x, int y, int n, dir d)
{
    25fc:	0f 93       	push	r16
    25fe:	df 93       	push	r29
    2600:	cf 93       	push	r28
    2602:	cd b7       	in	r28, 0x3d	; 61
    2604:	de b7       	in	r29, 0x3e	; 62
    2606:	2c 97       	sbiw	r28, 0x0c	; 12
    2608:	0f b6       	in	r0, 0x3f	; 63
    260a:	f8 94       	cli
    260c:	de bf       	out	0x3e, r29	; 62
    260e:	0f be       	out	0x3f, r0	; 63
    2610:	cd bf       	out	0x3d, r28	; 61
    2612:	8b 83       	std	Y+3, r24	; 0x03
    2614:	7d 83       	std	Y+5, r23	; 0x05
    2616:	6c 83       	std	Y+4, r22	; 0x04
    2618:	5f 83       	std	Y+7, r21	; 0x07
    261a:	4e 83       	std	Y+6, r20	; 0x06
    261c:	39 87       	std	Y+9, r19	; 0x09
    261e:	28 87       	std	Y+8, r18	; 0x08
    2620:	0a 87       	std	Y+10, r16	; 0x0a
	direction(d);
    2622:	8a 85       	ldd	r24, Y+10	; 0x0a
    2624:	0e 94 d4 12 	call	0x25a8	; 0x25a8 <direction>
		switch(a)
    2628:	8b 81       	ldd	r24, Y+3	; 0x03
    262a:	28 2f       	mov	r18, r24
    262c:	30 e0       	ldi	r19, 0x00	; 0
    262e:	3c 87       	std	Y+12, r19	; 0x0c
    2630:	2b 87       	std	Y+11, r18	; 0x0b
    2632:	8b 85       	ldd	r24, Y+11	; 0x0b
    2634:	9c 85       	ldd	r25, Y+12	; 0x0c
    2636:	81 30       	cpi	r24, 0x01	; 1
    2638:	91 05       	cpc	r25, r1
    263a:	71 f0       	breq	.+28     	; 0x2658 <clearline+0x5c>
    263c:	2b 85       	ldd	r18, Y+11	; 0x0b
    263e:	3c 85       	ldd	r19, Y+12	; 0x0c
    2640:	22 30       	cpi	r18, 0x02	; 2
    2642:	31 05       	cpc	r19, r1
    2644:	89 f4       	brne	.+34     	; 0x2668 <clearline+0x6c>
		{
		case h:
			break;
		case vdown:
			GLCD_Command((0xB8) + y);
    2646:	8e 81       	ldd	r24, Y+6	; 0x06
    2648:	88 54       	subi	r24, 0x48	; 72
    264a:	0e 94 71 0e 	call	0x1ce2	; 0x1ce2 <GLCD_Command>
			GLCD_Command((0x40) + x);
    264e:	8c 81       	ldd	r24, Y+4	; 0x04
    2650:	80 5c       	subi	r24, 0xC0	; 192
    2652:	0e 94 71 0e 	call	0x1ce2	; 0x1ce2 <GLCD_Command>
    2656:	08 c0       	rjmp	.+16     	; 0x2668 <clearline+0x6c>
			break;
		case vup:
			GLCD_Command((0xB8) + y + 1);
    2658:	8e 81       	ldd	r24, Y+6	; 0x06
    265a:	87 54       	subi	r24, 0x47	; 71
    265c:	0e 94 71 0e 	call	0x1ce2	; 0x1ce2 <GLCD_Command>
			GLCD_Command((0x40) + x);
    2660:	8c 81       	ldd	r24, Y+4	; 0x04
    2662:	80 5c       	subi	r24, 0xC0	; 192
    2664:	0e 94 71 0e 	call	0x1ce2	; 0x1ce2 <GLCD_Command>
			break;
		}
	for (int j = 0; j < n; j++)
    2668:	1a 82       	std	Y+2, r1	; 0x02
    266a:	19 82       	std	Y+1, r1	; 0x01
    266c:	08 c0       	rjmp	.+16     	; 0x267e <clearline+0x82>
	{
		GLCD_Data(0);
    266e:	80 e0       	ldi	r24, 0x00	; 0
    2670:	0e 94 21 10 	call	0x2042	; 0x2042 <GLCD_Data>
		case vup:
			GLCD_Command((0xB8) + y + 1);
			GLCD_Command((0x40) + x);
			break;
		}
	for (int j = 0; j < n; j++)
    2674:	89 81       	ldd	r24, Y+1	; 0x01
    2676:	9a 81       	ldd	r25, Y+2	; 0x02
    2678:	01 96       	adiw	r24, 0x01	; 1
    267a:	9a 83       	std	Y+2, r25	; 0x02
    267c:	89 83       	std	Y+1, r24	; 0x01
    267e:	29 81       	ldd	r18, Y+1	; 0x01
    2680:	3a 81       	ldd	r19, Y+2	; 0x02
    2682:	88 85       	ldd	r24, Y+8	; 0x08
    2684:	99 85       	ldd	r25, Y+9	; 0x09
    2686:	28 17       	cp	r18, r24
    2688:	39 07       	cpc	r19, r25
    268a:	8c f3       	brlt	.-30     	; 0x266e <clearline+0x72>
	{
		GLCD_Data(0);
	}
	GLCD_Command(0x40);
    268c:	80 e4       	ldi	r24, 0x40	; 64
    268e:	0e 94 71 0e 	call	0x1ce2	; 0x1ce2 <GLCD_Command>
}
    2692:	2c 96       	adiw	r28, 0x0c	; 12
    2694:	0f b6       	in	r0, 0x3f	; 63
    2696:	f8 94       	cli
    2698:	de bf       	out	0x3e, r29	; 62
    269a:	0f be       	out	0x3f, r0	; 63
    269c:	cd bf       	out	0x3d, r28	; 61
    269e:	cf 91       	pop	r28
    26a0:	df 91       	pop	r29
    26a2:	0f 91       	pop	r16
    26a4:	08 95       	ret

000026a6 <cursor_place>:

void cursor_place(int x, int y, dir d)
{
    26a6:	df 93       	push	r29
    26a8:	cf 93       	push	r28
    26aa:	00 d0       	rcall	.+0      	; 0x26ac <cursor_place+0x6>
    26ac:	00 d0       	rcall	.+0      	; 0x26ae <cursor_place+0x8>
    26ae:	0f 92       	push	r0
    26b0:	cd b7       	in	r28, 0x3d	; 61
    26b2:	de b7       	in	r29, 0x3e	; 62
    26b4:	9a 83       	std	Y+2, r25	; 0x02
    26b6:	89 83       	std	Y+1, r24	; 0x01
    26b8:	7c 83       	std	Y+4, r23	; 0x04
    26ba:	6b 83       	std	Y+3, r22	; 0x03
    26bc:	4d 83       	std	Y+5, r20	; 0x05
	direction(d);
    26be:	8d 81       	ldd	r24, Y+5	; 0x05
    26c0:	0e 94 d4 12 	call	0x25a8	; 0x25a8 <direction>
	GLCD_Command((0x40) + x);
    26c4:	89 81       	ldd	r24, Y+1	; 0x01
    26c6:	80 5c       	subi	r24, 0xC0	; 192
    26c8:	0e 94 71 0e 	call	0x1ce2	; 0x1ce2 <GLCD_Command>
	GLCD_Command((0xB8) + y);
    26cc:	8b 81       	ldd	r24, Y+3	; 0x03
    26ce:	88 54       	subi	r24, 0x48	; 72
    26d0:	0e 94 71 0e 	call	0x1ce2	; 0x1ce2 <GLCD_Command>
}
    26d4:	0f 90       	pop	r0
    26d6:	0f 90       	pop	r0
    26d8:	0f 90       	pop	r0
    26da:	0f 90       	pop	r0
    26dc:	0f 90       	pop	r0
    26de:	cf 91       	pop	r28
    26e0:	df 91       	pop	r29
    26e2:	08 95       	ret

000026e4 <GLCD_String>:


void GLCD_String(char page_no, char *str) /* GLCD string write function */
{
    26e4:	0f 93       	push	r16
    26e6:	1f 93       	push	r17
    26e8:	df 93       	push	r29
    26ea:	cf 93       	push	r28
    26ec:	cd b7       	in	r28, 0x3d	; 61
    26ee:	de b7       	in	r29, 0x3e	; 62
    26f0:	2f 97       	sbiw	r28, 0x0f	; 15
    26f2:	0f b6       	in	r0, 0x3f	; 63
    26f4:	f8 94       	cli
    26f6:	de bf       	out	0x3e, r29	; 62
    26f8:	0f be       	out	0x3f, r0	; 63
    26fa:	cd bf       	out	0x3d, r28	; 61
    26fc:	8d 87       	std	Y+13, r24	; 0x0d
    26fe:	7f 87       	std	Y+15, r23	; 0x0f
    2700:	6e 87       	std	Y+14, r22	; 0x0e
    unsigned int i, column;
    unsigned int Page = ((0xB8) + page_no);
    2702:	8d 85       	ldd	r24, Y+13	; 0x0d
    2704:	88 2f       	mov	r24, r24
    2706:	90 e0       	ldi	r25, 0x00	; 0
    2708:	88 54       	subi	r24, 0x48	; 72
    270a:	9f 4f       	sbci	r25, 0xFF	; 255
    270c:	98 87       	std	Y+8, r25	; 0x08
    270e:	8f 83       	std	Y+7, r24	; 0x07
    unsigned int Y_address = 0;
    2710:	1e 82       	std	Y+6, r1	; 0x06
    2712:	1d 82       	std	Y+5, r1	; 0x05
    float Page_inc = 0.5;
    2714:	80 e0       	ldi	r24, 0x00	; 0
    2716:	90 e0       	ldi	r25, 0x00	; 0
    2718:	a0 e0       	ldi	r26, 0x00	; 0
    271a:	bf e3       	ldi	r27, 0x3F	; 63
    271c:	89 83       	std	Y+1, r24	; 0x01
    271e:	9a 83       	std	Y+2, r25	; 0x02
    2720:	ab 83       	std	Y+3, r26	; 0x03
    2722:	bc 83       	std	Y+4, r27	; 0x04

    direction(left); /* Select first Left half of display */
    2724:	80 e0       	ldi	r24, 0x00	; 0
    2726:	0e 94 d4 12 	call	0x25a8	; 0x25a8 <direction>

    GLCD_Command(Page);
    272a:	8f 81       	ldd	r24, Y+7	; 0x07
    272c:	0e 94 71 0e 	call	0x1ce2	; 0x1ce2 <GLCD_Command>
    for (i = 0; str[i] != 0; i++) /* Print each char in string till null */
    2730:	1c 86       	std	Y+12, r1	; 0x0c
    2732:	1b 86       	std	Y+11, r1	; 0x0b
    2734:	16 c2       	rjmp	.+1068   	; 0x2b62 <GLCD_String+0x47e>
    {
        if (Y_address > (1024 - (((page_no)*128) + FontWidth))) /* Check Whether Total Display get overflowed */
    2736:	8d 85       	ldd	r24, Y+13	; 0x0d
    2738:	88 2f       	mov	r24, r24
    273a:	90 e0       	ldi	r25, 0x00	; 0
    273c:	96 95       	lsr	r25
    273e:	98 2f       	mov	r25, r24
    2740:	88 27       	eor	r24, r24
    2742:	97 95       	ror	r25
    2744:	87 95       	ror	r24
    2746:	90 95       	com	r25
    2748:	81 95       	neg	r24
    274a:	9f 4f       	sbci	r25, 0xFF	; 255
    274c:	85 50       	subi	r24, 0x05	; 5
    274e:	9c 4f       	sbci	r25, 0xFC	; 252
    2750:	9c 01       	movw	r18, r24
    2752:	8d 81       	ldd	r24, Y+5	; 0x05
    2754:	9e 81       	ldd	r25, Y+6	; 0x06
    2756:	28 17       	cp	r18, r24
    2758:	39 07       	cpc	r19, r25
    275a:	08 f4       	brcc	.+2      	; 0x275e <GLCD_String+0x7a>
    275c:	0d c2       	rjmp	.+1050   	; 0x2b78 <GLCD_String+0x494>
            break;                                              /* If yes then break writing */
        if (str[i] != 32)                                       /* Check whether character is not a SPACE */
    275e:	2e 85       	ldd	r18, Y+14	; 0x0e
    2760:	3f 85       	ldd	r19, Y+15	; 0x0f
    2762:	8b 85       	ldd	r24, Y+11	; 0x0b
    2764:	9c 85       	ldd	r25, Y+12	; 0x0c
    2766:	f9 01       	movw	r30, r18
    2768:	e8 0f       	add	r30, r24
    276a:	f9 1f       	adc	r31, r25
    276c:	80 81       	ld	r24, Z
    276e:	80 32       	cpi	r24, 0x20	; 32
    2770:	09 f4       	brne	.+2      	; 0x2774 <GLCD_String+0x90>
    2772:	80 c0       	rjmp	.+256    	; 0x2874 <GLCD_String+0x190>
        {
            for (column = 1; column <= FontWidth; column++)
    2774:	81 e0       	ldi	r24, 0x01	; 1
    2776:	90 e0       	ldi	r25, 0x00	; 0
    2778:	9a 87       	std	Y+10, r25	; 0x0a
    277a:	89 87       	std	Y+9, r24	; 0x09
    277c:	75 c0       	rjmp	.+234    	; 0x2868 <GLCD_String+0x184>
            {
                if ((Y_address + column) == (128 * ((int)(Page_inc + 0.5)))) /* If yes then check whether it overflow from right side of display */
    277e:	2d 81       	ldd	r18, Y+5	; 0x05
    2780:	3e 81       	ldd	r19, Y+6	; 0x06
    2782:	89 85       	ldd	r24, Y+9	; 0x09
    2784:	9a 85       	ldd	r25, Y+10	; 0x0a
    2786:	89 01       	movw	r16, r18
    2788:	08 0f       	add	r16, r24
    278a:	19 1f       	adc	r17, r25
    278c:	69 81       	ldd	r22, Y+1	; 0x01
    278e:	7a 81       	ldd	r23, Y+2	; 0x02
    2790:	8b 81       	ldd	r24, Y+3	; 0x03
    2792:	9c 81       	ldd	r25, Y+4	; 0x04
    2794:	20 e0       	ldi	r18, 0x00	; 0
    2796:	30 e0       	ldi	r19, 0x00	; 0
    2798:	40 e0       	ldi	r20, 0x00	; 0
    279a:	5f e3       	ldi	r21, 0x3F	; 63
    279c:	0e 94 ea 01 	call	0x3d4	; 0x3d4 <__addsf3>
    27a0:	dc 01       	movw	r26, r24
    27a2:	cb 01       	movw	r24, r22
    27a4:	bc 01       	movw	r22, r24
    27a6:	cd 01       	movw	r24, r26
    27a8:	0e 94 4d 04 	call	0x89a	; 0x89a <__fixsfsi>
    27ac:	dc 01       	movw	r26, r24
    27ae:	cb 01       	movw	r24, r22
    27b0:	96 95       	lsr	r25
    27b2:	98 2f       	mov	r25, r24
    27b4:	88 27       	eor	r24, r24
    27b6:	97 95       	ror	r25
    27b8:	87 95       	ror	r24
    27ba:	08 17       	cp	r16, r24
    27bc:	19 07       	cpc	r17, r25
    27be:	09 f0       	breq	.+2      	; 0x27c2 <GLCD_String+0xde>
    27c0:	4e c0       	rjmp	.+156    	; 0x285e <GLCD_String+0x17a>
                {
                    if (column == FontWidth) /* Also check and break if it overflow after 5th column */
    27c2:	89 85       	ldd	r24, Y+9	; 0x09
    27c4:	9a 85       	ldd	r25, Y+10	; 0x0a
    27c6:	85 30       	cpi	r24, 0x05	; 5
    27c8:	91 05       	cpc	r25, r1
    27ca:	09 f4       	brne	.+2      	; 0x27ce <GLCD_String+0xea>
    27cc:	53 c0       	rjmp	.+166    	; 0x2874 <GLCD_String+0x190>
                        break;
                    GLCD_Command(0x40);             /* If not 5th and get overflowed then change Y address to START column */
    27ce:	80 e4       	ldi	r24, 0x40	; 64
    27d0:	0e 94 71 0e 	call	0x1ce2	; 0x1ce2 <GLCD_Command>
                    Y_address = Y_address + column; /* Increment Y address count by column no. */
    27d4:	2d 81       	ldd	r18, Y+5	; 0x05
    27d6:	3e 81       	ldd	r19, Y+6	; 0x06
    27d8:	89 85       	ldd	r24, Y+9	; 0x09
    27da:	9a 85       	ldd	r25, Y+10	; 0x0a
    27dc:	82 0f       	add	r24, r18
    27de:	93 1f       	adc	r25, r19
    27e0:	9e 83       	std	Y+6, r25	; 0x06
    27e2:	8d 83       	std	Y+5, r24	; 0x05
                    Command_Port ^= (1 << CS1);     /* If yes then change segment controller to display on other half of display */
    27e4:	a5 e3       	ldi	r26, 0x35	; 53
    27e6:	b0 e0       	ldi	r27, 0x00	; 0
    27e8:	e5 e3       	ldi	r30, 0x35	; 53
    27ea:	f0 e0       	ldi	r31, 0x00	; 0
    27ec:	90 81       	ld	r25, Z
    27ee:	88 e0       	ldi	r24, 0x08	; 8
    27f0:	89 27       	eor	r24, r25
    27f2:	8c 93       	st	X, r24
                    Command_Port ^= (1 << CS2);
    27f4:	a5 e3       	ldi	r26, 0x35	; 53
    27f6:	b0 e0       	ldi	r27, 0x00	; 0
    27f8:	e5 e3       	ldi	r30, 0x35	; 53
    27fa:	f0 e0       	ldi	r31, 0x00	; 0
    27fc:	90 81       	ld	r25, Z
    27fe:	80 e1       	ldi	r24, 0x10	; 16
    2800:	89 27       	eor	r24, r25
    2802:	8c 93       	st	X, r24
                    GLCD_Command(Page + Page_inc); /* Execute command for page change */
    2804:	8f 81       	ldd	r24, Y+7	; 0x07
    2806:	98 85       	ldd	r25, Y+8	; 0x08
    2808:	cc 01       	movw	r24, r24
    280a:	a0 e0       	ldi	r26, 0x00	; 0
    280c:	b0 e0       	ldi	r27, 0x00	; 0
    280e:	bc 01       	movw	r22, r24
    2810:	cd 01       	movw	r24, r26
    2812:	0e 94 a1 04 	call	0x942	; 0x942 <__floatunsisf>
    2816:	dc 01       	movw	r26, r24
    2818:	cb 01       	movw	r24, r22
    281a:	bc 01       	movw	r22, r24
    281c:	cd 01       	movw	r24, r26
    281e:	29 81       	ldd	r18, Y+1	; 0x01
    2820:	3a 81       	ldd	r19, Y+2	; 0x02
    2822:	4b 81       	ldd	r20, Y+3	; 0x03
    2824:	5c 81       	ldd	r21, Y+4	; 0x04
    2826:	0e 94 ea 01 	call	0x3d4	; 0x3d4 <__addsf3>
    282a:	dc 01       	movw	r26, r24
    282c:	cb 01       	movw	r24, r22
    282e:	bc 01       	movw	r22, r24
    2830:	cd 01       	movw	r24, r26
    2832:	0e 94 41 00 	call	0x82	; 0x82 <__fixunssfsi>
    2836:	dc 01       	movw	r26, r24
    2838:	cb 01       	movw	r24, r22
    283a:	0e 94 71 0e 	call	0x1ce2	; 0x1ce2 <GLCD_Command>
                    Page_inc = Page_inc + 0.5;     /* Increment Page No. by half */
    283e:	69 81       	ldd	r22, Y+1	; 0x01
    2840:	7a 81       	ldd	r23, Y+2	; 0x02
    2842:	8b 81       	ldd	r24, Y+3	; 0x03
    2844:	9c 81       	ldd	r25, Y+4	; 0x04
    2846:	20 e0       	ldi	r18, 0x00	; 0
    2848:	30 e0       	ldi	r19, 0x00	; 0
    284a:	40 e0       	ldi	r20, 0x00	; 0
    284c:	5f e3       	ldi	r21, 0x3F	; 63
    284e:	0e 94 ea 01 	call	0x3d4	; 0x3d4 <__addsf3>
    2852:	dc 01       	movw	r26, r24
    2854:	cb 01       	movw	r24, r22
    2856:	89 83       	std	Y+1, r24	; 0x01
    2858:	9a 83       	std	Y+2, r25	; 0x02
    285a:	ab 83       	std	Y+3, r26	; 0x03
    285c:	bc 83       	std	Y+4, r27	; 0x04
    {
        if (Y_address > (1024 - (((page_no)*128) + FontWidth))) /* Check Whether Total Display get overflowed */
            break;                                              /* If yes then break writing */
        if (str[i] != 32)                                       /* Check whether character is not a SPACE */
        {
            for (column = 1; column <= FontWidth; column++)
    285e:	89 85       	ldd	r24, Y+9	; 0x09
    2860:	9a 85       	ldd	r25, Y+10	; 0x0a
    2862:	01 96       	adiw	r24, 0x01	; 1
    2864:	9a 87       	std	Y+10, r25	; 0x0a
    2866:	89 87       	std	Y+9, r24	; 0x09
    2868:	89 85       	ldd	r24, Y+9	; 0x09
    286a:	9a 85       	ldd	r25, Y+10	; 0x0a
    286c:	86 30       	cpi	r24, 0x06	; 6
    286e:	91 05       	cpc	r25, r1
    2870:	08 f4       	brcc	.+2      	; 0x2874 <GLCD_String+0x190>
    2872:	85 cf       	rjmp	.-246    	; 0x277e <GLCD_String+0x9a>
                    GLCD_Command(Page + Page_inc); /* Execute command for page change */
                    Page_inc = Page_inc + 0.5;     /* Increment Page No. by half */
                }
            }
        }
        if (Y_address > (1024 - (((page_no)*128) + FontWidth)))           /* Check Whether Total Display get overflowed */
    2874:	8d 85       	ldd	r24, Y+13	; 0x0d
    2876:	88 2f       	mov	r24, r24
    2878:	90 e0       	ldi	r25, 0x00	; 0
    287a:	96 95       	lsr	r25
    287c:	98 2f       	mov	r25, r24
    287e:	88 27       	eor	r24, r24
    2880:	97 95       	ror	r25
    2882:	87 95       	ror	r24
    2884:	90 95       	com	r25
    2886:	81 95       	neg	r24
    2888:	9f 4f       	sbci	r25, 0xFF	; 255
    288a:	85 50       	subi	r24, 0x05	; 5
    288c:	9c 4f       	sbci	r25, 0xFC	; 252
    288e:	9c 01       	movw	r18, r24
    2890:	8d 81       	ldd	r24, Y+5	; 0x05
    2892:	9e 81       	ldd	r25, Y+6	; 0x06
    2894:	28 17       	cp	r18, r24
    2896:	39 07       	cpc	r19, r25
    2898:	08 f4       	brcc	.+2      	; 0x289c <GLCD_String+0x1b8>
    289a:	6e c1       	rjmp	.+732    	; 0x2b78 <GLCD_String+0x494>
            break;                                                        /* If yes then break writing */
        if ((font[((str[i] - 32) * FontWidth) + 4]) == 0 || str[i] == 32) /* Check whether character is SPACE or character last column is zero */
    289c:	2e 85       	ldd	r18, Y+14	; 0x0e
    289e:	3f 85       	ldd	r19, Y+15	; 0x0f
    28a0:	8b 85       	ldd	r24, Y+11	; 0x0b
    28a2:	9c 85       	ldd	r25, Y+12	; 0x0c
    28a4:	f9 01       	movw	r30, r18
    28a6:	e8 0f       	add	r30, r24
    28a8:	f9 1f       	adc	r31, r25
    28aa:	80 81       	ld	r24, Z
    28ac:	28 2f       	mov	r18, r24
    28ae:	30 e0       	ldi	r19, 0x00	; 0
    28b0:	c9 01       	movw	r24, r18
    28b2:	88 0f       	add	r24, r24
    28b4:	99 1f       	adc	r25, r25
    28b6:	82 0f       	add	r24, r18
    28b8:	93 1f       	adc	r25, r19
    28ba:	88 0f       	add	r24, r24
    28bc:	99 1f       	adc	r25, r25
    28be:	88 0f       	add	r24, r24
    28c0:	99 1f       	adc	r25, r25
    28c2:	88 0f       	add	r24, r24
    28c4:	99 1f       	adc	r25, r25
    28c6:	82 0f       	add	r24, r18
    28c8:	93 1f       	adc	r25, r19
    28ca:	8c 50       	subi	r24, 0x0C	; 12
    28cc:	93 40       	sbci	r25, 0x03	; 3
    28ce:	81 53       	subi	r24, 0x31	; 49
    28d0:	9e 4f       	sbci	r25, 0xFE	; 254
    28d2:	00 97       	sbiw	r24, 0x00	; 0
    28d4:	59 f0       	breq	.+22     	; 0x28ec <GLCD_String+0x208>
    28d6:	2e 85       	ldd	r18, Y+14	; 0x0e
    28d8:	3f 85       	ldd	r19, Y+15	; 0x0f
    28da:	8b 85       	ldd	r24, Y+11	; 0x0b
    28dc:	9c 85       	ldd	r25, Y+12	; 0x0c
    28de:	f9 01       	movw	r30, r18
    28e0:	e8 0f       	add	r30, r24
    28e2:	f9 1f       	adc	r31, r25
    28e4:	80 81       	ld	r24, Z
    28e6:	80 32       	cpi	r24, 0x20	; 32
    28e8:	09 f0       	breq	.+2      	; 0x28ec <GLCD_String+0x208>
    28ea:	76 c0       	rjmp	.+236    	; 0x29d8 <GLCD_String+0x2f4>
        {
            for (column = 0; column < FontWidth; column++)
    28ec:	1a 86       	std	Y+10, r1	; 0x0a
    28ee:	19 86       	std	Y+9, r1	; 0x09
    28f0:	6c c0       	rjmp	.+216    	; 0x29ca <GLCD_String+0x2e6>
            {
                GLCD_Data(font[str[i] - 32][column]); /* If yes then then print character */
    28f2:	2e 85       	ldd	r18, Y+14	; 0x0e
    28f4:	3f 85       	ldd	r19, Y+15	; 0x0f
    28f6:	8b 85       	ldd	r24, Y+11	; 0x0b
    28f8:	9c 85       	ldd	r25, Y+12	; 0x0c
    28fa:	f9 01       	movw	r30, r18
    28fc:	e8 0f       	add	r30, r24
    28fe:	f9 1f       	adc	r31, r25
    2900:	80 81       	ld	r24, Z
    2902:	88 2f       	mov	r24, r24
    2904:	90 e0       	ldi	r25, 0x00	; 0
    2906:	9c 01       	movw	r18, r24
    2908:	20 52       	subi	r18, 0x20	; 32
    290a:	30 40       	sbci	r19, 0x00	; 0
    290c:	49 85       	ldd	r20, Y+9	; 0x09
    290e:	5a 85       	ldd	r21, Y+10	; 0x0a
    2910:	c9 01       	movw	r24, r18
    2912:	88 0f       	add	r24, r24
    2914:	99 1f       	adc	r25, r25
    2916:	88 0f       	add	r24, r24
    2918:	99 1f       	adc	r25, r25
    291a:	82 0f       	add	r24, r18
    291c:	93 1f       	adc	r25, r19
    291e:	84 0f       	add	r24, r20
    2920:	95 1f       	adc	r25, r21
    2922:	fc 01       	movw	r30, r24
    2924:	e1 53       	subi	r30, 0x31	; 49
    2926:	fe 4f       	sbci	r31, 0xFE	; 254
    2928:	80 81       	ld	r24, Z
    292a:	0e 94 21 10 	call	0x2042	; 0x2042 <GLCD_Data>
                if ((Y_address + 1) % 64 == 0)        /* check whether it gets overflowed  from either half of side */
    292e:	8d 81       	ldd	r24, Y+5	; 0x05
    2930:	9e 81       	ldd	r25, Y+6	; 0x06
    2932:	01 96       	adiw	r24, 0x01	; 1
    2934:	8f 73       	andi	r24, 0x3F	; 63
    2936:	90 70       	andi	r25, 0x00	; 0
    2938:	00 97       	sbiw	r24, 0x00	; 0
    293a:	e9 f5       	brne	.+122    	; 0x29b6 <GLCD_String+0x2d2>
                {
                    Command_Port ^= (1 << CS1); /* If yes then change segment controller to display on other half of display */
    293c:	a5 e3       	ldi	r26, 0x35	; 53
    293e:	b0 e0       	ldi	r27, 0x00	; 0
    2940:	e5 e3       	ldi	r30, 0x35	; 53
    2942:	f0 e0       	ldi	r31, 0x00	; 0
    2944:	90 81       	ld	r25, Z
    2946:	88 e0       	ldi	r24, 0x08	; 8
    2948:	89 27       	eor	r24, r25
    294a:	8c 93       	st	X, r24
                    Command_Port ^= (1 << CS2);
    294c:	a5 e3       	ldi	r26, 0x35	; 53
    294e:	b0 e0       	ldi	r27, 0x00	; 0
    2950:	e5 e3       	ldi	r30, 0x35	; 53
    2952:	f0 e0       	ldi	r31, 0x00	; 0
    2954:	90 81       	ld	r25, Z
    2956:	80 e1       	ldi	r24, 0x10	; 16
    2958:	89 27       	eor	r24, r25
    295a:	8c 93       	st	X, r24
                    GLCD_Command((Page + Page_inc)); /* Execute command for page change */
    295c:	8f 81       	ldd	r24, Y+7	; 0x07
    295e:	98 85       	ldd	r25, Y+8	; 0x08
    2960:	cc 01       	movw	r24, r24
    2962:	a0 e0       	ldi	r26, 0x00	; 0
    2964:	b0 e0       	ldi	r27, 0x00	; 0
    2966:	bc 01       	movw	r22, r24
    2968:	cd 01       	movw	r24, r26
    296a:	0e 94 a1 04 	call	0x942	; 0x942 <__floatunsisf>
    296e:	dc 01       	movw	r26, r24
    2970:	cb 01       	movw	r24, r22
    2972:	bc 01       	movw	r22, r24
    2974:	cd 01       	movw	r24, r26
    2976:	29 81       	ldd	r18, Y+1	; 0x01
    2978:	3a 81       	ldd	r19, Y+2	; 0x02
    297a:	4b 81       	ldd	r20, Y+3	; 0x03
    297c:	5c 81       	ldd	r21, Y+4	; 0x04
    297e:	0e 94 ea 01 	call	0x3d4	; 0x3d4 <__addsf3>
    2982:	dc 01       	movw	r26, r24
    2984:	cb 01       	movw	r24, r22
    2986:	bc 01       	movw	r22, r24
    2988:	cd 01       	movw	r24, r26
    298a:	0e 94 41 00 	call	0x82	; 0x82 <__fixunssfsi>
    298e:	dc 01       	movw	r26, r24
    2990:	cb 01       	movw	r24, r22
    2992:	0e 94 71 0e 	call	0x1ce2	; 0x1ce2 <GLCD_Command>
                    Page_inc = Page_inc + 0.5;       /* Increment Page No. by half */
    2996:	69 81       	ldd	r22, Y+1	; 0x01
    2998:	7a 81       	ldd	r23, Y+2	; 0x02
    299a:	8b 81       	ldd	r24, Y+3	; 0x03
    299c:	9c 81       	ldd	r25, Y+4	; 0x04
    299e:	20 e0       	ldi	r18, 0x00	; 0
    29a0:	30 e0       	ldi	r19, 0x00	; 0
    29a2:	40 e0       	ldi	r20, 0x00	; 0
    29a4:	5f e3       	ldi	r21, 0x3F	; 63
    29a6:	0e 94 ea 01 	call	0x3d4	; 0x3d4 <__addsf3>
    29aa:	dc 01       	movw	r26, r24
    29ac:	cb 01       	movw	r24, r22
    29ae:	89 83       	std	Y+1, r24	; 0x01
    29b0:	9a 83       	std	Y+2, r25	; 0x02
    29b2:	ab 83       	std	Y+3, r26	; 0x03
    29b4:	bc 83       	std	Y+4, r27	; 0x04
                }
                Y_address++; /* Increment Y_address count per column */
    29b6:	8d 81       	ldd	r24, Y+5	; 0x05
    29b8:	9e 81       	ldd	r25, Y+6	; 0x06
    29ba:	01 96       	adiw	r24, 0x01	; 1
    29bc:	9e 83       	std	Y+6, r25	; 0x06
    29be:	8d 83       	std	Y+5, r24	; 0x05
        }
        if (Y_address > (1024 - (((page_no)*128) + FontWidth)))           /* Check Whether Total Display get overflowed */
            break;                                                        /* If yes then break writing */
        if ((font[((str[i] - 32) * FontWidth) + 4]) == 0 || str[i] == 32) /* Check whether character is SPACE or character last column is zero */
        {
            for (column = 0; column < FontWidth; column++)
    29c0:	89 85       	ldd	r24, Y+9	; 0x09
    29c2:	9a 85       	ldd	r25, Y+10	; 0x0a
    29c4:	01 96       	adiw	r24, 0x01	; 1
    29c6:	9a 87       	std	Y+10, r25	; 0x0a
    29c8:	89 87       	std	Y+9, r24	; 0x09
    29ca:	89 85       	ldd	r24, Y+9	; 0x09
    29cc:	9a 85       	ldd	r25, Y+10	; 0x0a
    29ce:	85 30       	cpi	r24, 0x05	; 5
    29d0:	91 05       	cpc	r25, r1
    29d2:	08 f4       	brcc	.+2      	; 0x29d6 <GLCD_String+0x2f2>
    29d4:	8e cf       	rjmp	.-228    	; 0x28f2 <GLCD_String+0x20e>
    29d6:	c0 c0       	rjmp	.+384    	; 0x2b58 <GLCD_String+0x474>
                Y_address++; /* Increment Y_address count per column */
            }
        }
        else /* If character is not SPACE or character last column is not zero */
        {
            for (column = 0; column < FontWidth; column++)
    29d8:	1a 86       	std	Y+10, r1	; 0x0a
    29da:	19 86       	std	Y+9, r1	; 0x09
    29dc:	6c c0       	rjmp	.+216    	; 0x2ab6 <GLCD_String+0x3d2>
            {
                GLCD_Data(font[str[i] - 32][column]); /* Then continue to print hat char */
    29de:	2e 85       	ldd	r18, Y+14	; 0x0e
    29e0:	3f 85       	ldd	r19, Y+15	; 0x0f
    29e2:	8b 85       	ldd	r24, Y+11	; 0x0b
    29e4:	9c 85       	ldd	r25, Y+12	; 0x0c
    29e6:	f9 01       	movw	r30, r18
    29e8:	e8 0f       	add	r30, r24
    29ea:	f9 1f       	adc	r31, r25
    29ec:	80 81       	ld	r24, Z
    29ee:	88 2f       	mov	r24, r24
    29f0:	90 e0       	ldi	r25, 0x00	; 0
    29f2:	9c 01       	movw	r18, r24
    29f4:	20 52       	subi	r18, 0x20	; 32
    29f6:	30 40       	sbci	r19, 0x00	; 0
    29f8:	49 85       	ldd	r20, Y+9	; 0x09
    29fa:	5a 85       	ldd	r21, Y+10	; 0x0a
    29fc:	c9 01       	movw	r24, r18
    29fe:	88 0f       	add	r24, r24
    2a00:	99 1f       	adc	r25, r25
    2a02:	88 0f       	add	r24, r24
    2a04:	99 1f       	adc	r25, r25
    2a06:	82 0f       	add	r24, r18
    2a08:	93 1f       	adc	r25, r19
    2a0a:	84 0f       	add	r24, r20
    2a0c:	95 1f       	adc	r25, r21
    2a0e:	fc 01       	movw	r30, r24
    2a10:	e1 53       	subi	r30, 0x31	; 49
    2a12:	fe 4f       	sbci	r31, 0xFE	; 254
    2a14:	80 81       	ld	r24, Z
    2a16:	0e 94 21 10 	call	0x2042	; 0x2042 <GLCD_Data>
                if ((Y_address + 1) % 64 == 0)        /* check whether it gets overflowed  from either half of side */
    2a1a:	8d 81       	ldd	r24, Y+5	; 0x05
    2a1c:	9e 81       	ldd	r25, Y+6	; 0x06
    2a1e:	01 96       	adiw	r24, 0x01	; 1
    2a20:	8f 73       	andi	r24, 0x3F	; 63
    2a22:	90 70       	andi	r25, 0x00	; 0
    2a24:	00 97       	sbiw	r24, 0x00	; 0
    2a26:	e9 f5       	brne	.+122    	; 0x2aa2 <GLCD_String+0x3be>
                {
                    Command_Port ^= (1 << CS1); /* If yes then change segment controller to display on other half of display */
    2a28:	a5 e3       	ldi	r26, 0x35	; 53
    2a2a:	b0 e0       	ldi	r27, 0x00	; 0
    2a2c:	e5 e3       	ldi	r30, 0x35	; 53
    2a2e:	f0 e0       	ldi	r31, 0x00	; 0
    2a30:	90 81       	ld	r25, Z
    2a32:	88 e0       	ldi	r24, 0x08	; 8
    2a34:	89 27       	eor	r24, r25
    2a36:	8c 93       	st	X, r24
                    Command_Port ^= (1 << CS2);
    2a38:	a5 e3       	ldi	r26, 0x35	; 53
    2a3a:	b0 e0       	ldi	r27, 0x00	; 0
    2a3c:	e5 e3       	ldi	r30, 0x35	; 53
    2a3e:	f0 e0       	ldi	r31, 0x00	; 0
    2a40:	90 81       	ld	r25, Z
    2a42:	80 e1       	ldi	r24, 0x10	; 16
    2a44:	89 27       	eor	r24, r25
    2a46:	8c 93       	st	X, r24
                    GLCD_Command((Page + Page_inc)); /* Execute command for page change */
    2a48:	8f 81       	ldd	r24, Y+7	; 0x07
    2a4a:	98 85       	ldd	r25, Y+8	; 0x08
    2a4c:	cc 01       	movw	r24, r24
    2a4e:	a0 e0       	ldi	r26, 0x00	; 0
    2a50:	b0 e0       	ldi	r27, 0x00	; 0
    2a52:	bc 01       	movw	r22, r24
    2a54:	cd 01       	movw	r24, r26
    2a56:	0e 94 a1 04 	call	0x942	; 0x942 <__floatunsisf>
    2a5a:	dc 01       	movw	r26, r24
    2a5c:	cb 01       	movw	r24, r22
    2a5e:	bc 01       	movw	r22, r24
    2a60:	cd 01       	movw	r24, r26
    2a62:	29 81       	ldd	r18, Y+1	; 0x01
    2a64:	3a 81       	ldd	r19, Y+2	; 0x02
    2a66:	4b 81       	ldd	r20, Y+3	; 0x03
    2a68:	5c 81       	ldd	r21, Y+4	; 0x04
    2a6a:	0e 94 ea 01 	call	0x3d4	; 0x3d4 <__addsf3>
    2a6e:	dc 01       	movw	r26, r24
    2a70:	cb 01       	movw	r24, r22
    2a72:	bc 01       	movw	r22, r24
    2a74:	cd 01       	movw	r24, r26
    2a76:	0e 94 41 00 	call	0x82	; 0x82 <__fixunssfsi>
    2a7a:	dc 01       	movw	r26, r24
    2a7c:	cb 01       	movw	r24, r22
    2a7e:	0e 94 71 0e 	call	0x1ce2	; 0x1ce2 <GLCD_Command>
                    Page_inc = Page_inc + 0.5;       /* Increment Page No. by half */
    2a82:	69 81       	ldd	r22, Y+1	; 0x01
    2a84:	7a 81       	ldd	r23, Y+2	; 0x02
    2a86:	8b 81       	ldd	r24, Y+3	; 0x03
    2a88:	9c 81       	ldd	r25, Y+4	; 0x04
    2a8a:	20 e0       	ldi	r18, 0x00	; 0
    2a8c:	30 e0       	ldi	r19, 0x00	; 0
    2a8e:	40 e0       	ldi	r20, 0x00	; 0
    2a90:	5f e3       	ldi	r21, 0x3F	; 63
    2a92:	0e 94 ea 01 	call	0x3d4	; 0x3d4 <__addsf3>
    2a96:	dc 01       	movw	r26, r24
    2a98:	cb 01       	movw	r24, r22
    2a9a:	89 83       	std	Y+1, r24	; 0x01
    2a9c:	9a 83       	std	Y+2, r25	; 0x02
    2a9e:	ab 83       	std	Y+3, r26	; 0x03
    2aa0:	bc 83       	std	Y+4, r27	; 0x04
                }
                Y_address++; /* Increment Y_address count per column */
    2aa2:	8d 81       	ldd	r24, Y+5	; 0x05
    2aa4:	9e 81       	ldd	r25, Y+6	; 0x06
    2aa6:	01 96       	adiw	r24, 0x01	; 1
    2aa8:	9e 83       	std	Y+6, r25	; 0x06
    2aaa:	8d 83       	std	Y+5, r24	; 0x05
                Y_address++; /* Increment Y_address count per column */
            }
        }
        else /* If character is not SPACE or character last column is not zero */
        {
            for (column = 0; column < FontWidth; column++)
    2aac:	89 85       	ldd	r24, Y+9	; 0x09
    2aae:	9a 85       	ldd	r25, Y+10	; 0x0a
    2ab0:	01 96       	adiw	r24, 0x01	; 1
    2ab2:	9a 87       	std	Y+10, r25	; 0x0a
    2ab4:	89 87       	std	Y+9, r24	; 0x09
    2ab6:	89 85       	ldd	r24, Y+9	; 0x09
    2ab8:	9a 85       	ldd	r25, Y+10	; 0x0a
    2aba:	85 30       	cpi	r24, 0x05	; 5
    2abc:	91 05       	cpc	r25, r1
    2abe:	08 f4       	brcc	.+2      	; 0x2ac2 <GLCD_String+0x3de>
    2ac0:	8e cf       	rjmp	.-228    	; 0x29de <GLCD_String+0x2fa>
                    GLCD_Command((Page + Page_inc)); /* Execute command for page change */
                    Page_inc = Page_inc + 0.5;       /* Increment Page No. by half */
                }
                Y_address++; /* Increment Y_address count per column */
            }
            GLCD_Data(0);              /* Add one column of zero to print next character next of zero */
    2ac2:	80 e0       	ldi	r24, 0x00	; 0
    2ac4:	0e 94 21 10 	call	0x2042	; 0x2042 <GLCD_Data>
            Y_address++;               /* Increment Y_address count for last added zero */
    2ac8:	8d 81       	ldd	r24, Y+5	; 0x05
    2aca:	9e 81       	ldd	r25, Y+6	; 0x06
    2acc:	01 96       	adiw	r24, 0x01	; 1
    2ace:	9e 83       	std	Y+6, r25	; 0x06
    2ad0:	8d 83       	std	Y+5, r24	; 0x05
            if ((Y_address) % 64 == 0) /* check whether it gets overflowed  from either half of side */
    2ad2:	8d 81       	ldd	r24, Y+5	; 0x05
    2ad4:	9e 81       	ldd	r25, Y+6	; 0x06
    2ad6:	8f 73       	andi	r24, 0x3F	; 63
    2ad8:	90 70       	andi	r25, 0x00	; 0
    2ada:	00 97       	sbiw	r24, 0x00	; 0
    2adc:	e9 f5       	brne	.+122    	; 0x2b58 <GLCD_String+0x474>
            {
                Command_Port ^= (1 << CS1); /* If yes then change segment controller to display on other half of display */
    2ade:	a5 e3       	ldi	r26, 0x35	; 53
    2ae0:	b0 e0       	ldi	r27, 0x00	; 0
    2ae2:	e5 e3       	ldi	r30, 0x35	; 53
    2ae4:	f0 e0       	ldi	r31, 0x00	; 0
    2ae6:	90 81       	ld	r25, Z
    2ae8:	88 e0       	ldi	r24, 0x08	; 8
    2aea:	89 27       	eor	r24, r25
    2aec:	8c 93       	st	X, r24
                Command_Port ^= (1 << CS2);
    2aee:	a5 e3       	ldi	r26, 0x35	; 53
    2af0:	b0 e0       	ldi	r27, 0x00	; 0
    2af2:	e5 e3       	ldi	r30, 0x35	; 53
    2af4:	f0 e0       	ldi	r31, 0x00	; 0
    2af6:	90 81       	ld	r25, Z
    2af8:	80 e1       	ldi	r24, 0x10	; 16
    2afa:	89 27       	eor	r24, r25
    2afc:	8c 93       	st	X, r24
                GLCD_Command((Page + Page_inc)); /* Execute command for page change */
    2afe:	8f 81       	ldd	r24, Y+7	; 0x07
    2b00:	98 85       	ldd	r25, Y+8	; 0x08
    2b02:	cc 01       	movw	r24, r24
    2b04:	a0 e0       	ldi	r26, 0x00	; 0
    2b06:	b0 e0       	ldi	r27, 0x00	; 0
    2b08:	bc 01       	movw	r22, r24
    2b0a:	cd 01       	movw	r24, r26
    2b0c:	0e 94 a1 04 	call	0x942	; 0x942 <__floatunsisf>
    2b10:	dc 01       	movw	r26, r24
    2b12:	cb 01       	movw	r24, r22
    2b14:	bc 01       	movw	r22, r24
    2b16:	cd 01       	movw	r24, r26
    2b18:	29 81       	ldd	r18, Y+1	; 0x01
    2b1a:	3a 81       	ldd	r19, Y+2	; 0x02
    2b1c:	4b 81       	ldd	r20, Y+3	; 0x03
    2b1e:	5c 81       	ldd	r21, Y+4	; 0x04
    2b20:	0e 94 ea 01 	call	0x3d4	; 0x3d4 <__addsf3>
    2b24:	dc 01       	movw	r26, r24
    2b26:	cb 01       	movw	r24, r22
    2b28:	bc 01       	movw	r22, r24
    2b2a:	cd 01       	movw	r24, r26
    2b2c:	0e 94 41 00 	call	0x82	; 0x82 <__fixunssfsi>
    2b30:	dc 01       	movw	r26, r24
    2b32:	cb 01       	movw	r24, r22
    2b34:	0e 94 71 0e 	call	0x1ce2	; 0x1ce2 <GLCD_Command>
                Page_inc = Page_inc + 0.5;       /* Increment Page No. by half */
    2b38:	69 81       	ldd	r22, Y+1	; 0x01
    2b3a:	7a 81       	ldd	r23, Y+2	; 0x02
    2b3c:	8b 81       	ldd	r24, Y+3	; 0x03
    2b3e:	9c 81       	ldd	r25, Y+4	; 0x04
    2b40:	20 e0       	ldi	r18, 0x00	; 0
    2b42:	30 e0       	ldi	r19, 0x00	; 0
    2b44:	40 e0       	ldi	r20, 0x00	; 0
    2b46:	5f e3       	ldi	r21, 0x3F	; 63
    2b48:	0e 94 ea 01 	call	0x3d4	; 0x3d4 <__addsf3>
    2b4c:	dc 01       	movw	r26, r24
    2b4e:	cb 01       	movw	r24, r22
    2b50:	89 83       	std	Y+1, r24	; 0x01
    2b52:	9a 83       	std	Y+2, r25	; 0x02
    2b54:	ab 83       	std	Y+3, r26	; 0x03
    2b56:	bc 83       	std	Y+4, r27	; 0x04
    float Page_inc = 0.5;

    direction(left); /* Select first Left half of display */

    GLCD_Command(Page);
    for (i = 0; str[i] != 0; i++) /* Print each char in string till null */
    2b58:	8b 85       	ldd	r24, Y+11	; 0x0b
    2b5a:	9c 85       	ldd	r25, Y+12	; 0x0c
    2b5c:	01 96       	adiw	r24, 0x01	; 1
    2b5e:	9c 87       	std	Y+12, r25	; 0x0c
    2b60:	8b 87       	std	Y+11, r24	; 0x0b
    2b62:	2e 85       	ldd	r18, Y+14	; 0x0e
    2b64:	3f 85       	ldd	r19, Y+15	; 0x0f
    2b66:	8b 85       	ldd	r24, Y+11	; 0x0b
    2b68:	9c 85       	ldd	r25, Y+12	; 0x0c
    2b6a:	f9 01       	movw	r30, r18
    2b6c:	e8 0f       	add	r30, r24
    2b6e:	f9 1f       	adc	r31, r25
    2b70:	80 81       	ld	r24, Z
    2b72:	88 23       	and	r24, r24
    2b74:	09 f0       	breq	.+2      	; 0x2b78 <GLCD_String+0x494>
    2b76:	df cd       	rjmp	.-1090   	; 0x2736 <GLCD_String+0x52>
                GLCD_Command((Page + Page_inc)); /* Execute command for page change */
                Page_inc = Page_inc + 0.5;       /* Increment Page No. by half */
            }
        }
    }
    GLCD_Command(0x40); /* Set Y address (column=0) */
    2b78:	80 e4       	ldi	r24, 0x40	; 64
    2b7a:	0e 94 71 0e 	call	0x1ce2	; 0x1ce2 <GLCD_Command>
}
    2b7e:	2f 96       	adiw	r28, 0x0f	; 15
    2b80:	0f b6       	in	r0, 0x3f	; 63
    2b82:	f8 94       	cli
    2b84:	de bf       	out	0x3e, r29	; 62
    2b86:	0f be       	out	0x3f, r0	; 63
    2b88:	cd bf       	out	0x3d, r28	; 61
    2b8a:	cf 91       	pop	r28
    2b8c:	df 91       	pop	r29
    2b8e:	1f 91       	pop	r17
    2b90:	0f 91       	pop	r16
    2b92:	08 95       	ret

00002b94 <line>:


int line(axis a, int x, int y, int n, dir d)
{
    2b94:	0f 93       	push	r16
    2b96:	df 93       	push	r29
    2b98:	cf 93       	push	r28
    2b9a:	cd b7       	in	r28, 0x3d	; 61
    2b9c:	de b7       	in	r29, 0x3e	; 62
    2b9e:	2e 97       	sbiw	r28, 0x0e	; 14
    2ba0:	0f b6       	in	r0, 0x3f	; 63
    2ba2:	f8 94       	cli
    2ba4:	de bf       	out	0x3e, r29	; 62
    2ba6:	0f be       	out	0x3f, r0	; 63
    2ba8:	cd bf       	out	0x3d, r28	; 61
    2baa:	8d 83       	std	Y+5, r24	; 0x05
    2bac:	7f 83       	std	Y+7, r23	; 0x07
    2bae:	6e 83       	std	Y+6, r22	; 0x06
    2bb0:	59 87       	std	Y+9, r21	; 0x09
    2bb2:	48 87       	std	Y+8, r20	; 0x08
    2bb4:	3b 87       	std	Y+11, r19	; 0x0b
    2bb6:	2a 87       	std	Y+10, r18	; 0x0a
    2bb8:	0c 87       	std	Y+12, r16	; 0x0c
	int moves = 0;
    2bba:	1c 82       	std	Y+4, r1	; 0x04
    2bbc:	1b 82       	std	Y+3, r1	; 0x03
	direction(d);
    2bbe:	8c 85       	ldd	r24, Y+12	; 0x0c
    2bc0:	0e 94 d4 12 	call	0x25a8	; 0x25a8 <direction>
	GLCD_Command((0xB8) + y);
    2bc4:	88 85       	ldd	r24, Y+8	; 0x08
    2bc6:	88 54       	subi	r24, 0x48	; 72
    2bc8:	0e 94 71 0e 	call	0x1ce2	; 0x1ce2 <GLCD_Command>
	GLCD_Command((0x40) + x);
    2bcc:	8e 81       	ldd	r24, Y+6	; 0x06
    2bce:	80 5c       	subi	r24, 0xC0	; 192
    2bd0:	0e 94 71 0e 	call	0x1ce2	; 0x1ce2 <GLCD_Command>
	for(int i = 0; i < n; i++)
    2bd4:	1a 82       	std	Y+2, r1	; 0x02
    2bd6:	19 82       	std	Y+1, r1	; 0x01
    2bd8:	3d c0       	rjmp	.+122    	; 0x2c54 <line+0xc0>
	switch(a)
    2bda:	8d 81       	ldd	r24, Y+5	; 0x05
    2bdc:	28 2f       	mov	r18, r24
    2bde:	30 e0       	ldi	r19, 0x00	; 0
    2be0:	3e 87       	std	Y+14, r19	; 0x0e
    2be2:	2d 87       	std	Y+13, r18	; 0x0d
    2be4:	8d 85       	ldd	r24, Y+13	; 0x0d
    2be6:	9e 85       	ldd	r25, Y+14	; 0x0e
    2be8:	81 30       	cpi	r24, 0x01	; 1
    2bea:	91 05       	cpc	r25, r1
    2bec:	31 f1       	breq	.+76     	; 0x2c3a <line+0xa6>
    2bee:	2d 85       	ldd	r18, Y+13	; 0x0d
    2bf0:	3e 85       	ldd	r19, Y+14	; 0x0e
    2bf2:	22 30       	cpi	r18, 0x02	; 2
    2bf4:	31 05       	cpc	r19, r1
    2bf6:	c1 f0       	breq	.+48     	; 0x2c28 <line+0x94>
    2bf8:	8d 85       	ldd	r24, Y+13	; 0x0d
    2bfa:	9e 85       	ldd	r25, Y+14	; 0x0e
    2bfc:	00 97       	sbiw	r24, 0x00	; 0
    2bfe:	29 f5       	brne	.+74     	; 0x2c4a <line+0xb6>
	{
	case h:
		GLCD_Data(0xff);
    2c00:	8f ef       	ldi	r24, 0xFF	; 255
    2c02:	0e 94 21 10 	call	0x2042	; 0x2042 <GLCD_Data>
		GLCD_Command((0x40) + x);
    2c06:	8e 81       	ldd	r24, Y+6	; 0x06
    2c08:	80 5c       	subi	r24, 0xC0	; 192
    2c0a:	0e 94 71 0e 	call	0x1ce2	; 0x1ce2 <GLCD_Command>
		GLCD_Data(0xff);
    2c0e:	8f ef       	ldi	r24, 0xFF	; 255
    2c10:	0e 94 21 10 	call	0x2042	; 0x2042 <GLCD_Data>
		GLCD_Command((0xB8)+ y);
    2c14:	88 85       	ldd	r24, Y+8	; 0x08
    2c16:	88 54       	subi	r24, 0x48	; 72
    2c18:	0e 94 71 0e 	call	0x1ce2	; 0x1ce2 <GLCD_Command>
		moves++;
    2c1c:	8b 81       	ldd	r24, Y+3	; 0x03
    2c1e:	9c 81       	ldd	r25, Y+4	; 0x04
    2c20:	01 96       	adiw	r24, 0x01	; 1
    2c22:	9c 83       	std	Y+4, r25	; 0x04
    2c24:	8b 83       	std	Y+3, r24	; 0x03
    2c26:	11 c0       	rjmp	.+34     	; 0x2c4a <line+0xb6>
		break;
	case vdown:
		moves++;
    2c28:	8b 81       	ldd	r24, Y+3	; 0x03
    2c2a:	9c 81       	ldd	r25, Y+4	; 0x04
    2c2c:	01 96       	adiw	r24, 0x01	; 1
    2c2e:	9c 83       	std	Y+4, r25	; 0x04
    2c30:	8b 83       	std	Y+3, r24	; 0x03
		GLCD_Data(0x80);
    2c32:	80 e8       	ldi	r24, 0x80	; 128
    2c34:	0e 94 21 10 	call	0x2042	; 0x2042 <GLCD_Data>
    2c38:	08 c0       	rjmp	.+16     	; 0x2c4a <line+0xb6>
		break;
	case vup:
		moves++;
    2c3a:	8b 81       	ldd	r24, Y+3	; 0x03
    2c3c:	9c 81       	ldd	r25, Y+4	; 0x04
    2c3e:	01 96       	adiw	r24, 0x01	; 1
    2c40:	9c 83       	std	Y+4, r25	; 0x04
    2c42:	8b 83       	std	Y+3, r24	; 0x03
		GLCD_Data(0x01);
    2c44:	81 e0       	ldi	r24, 0x01	; 1
    2c46:	0e 94 21 10 	call	0x2042	; 0x2042 <GLCD_Data>
{
	int moves = 0;
	direction(d);
	GLCD_Command((0xB8) + y);
	GLCD_Command((0x40) + x);
	for(int i = 0; i < n; i++)
    2c4a:	89 81       	ldd	r24, Y+1	; 0x01
    2c4c:	9a 81       	ldd	r25, Y+2	; 0x02
    2c4e:	01 96       	adiw	r24, 0x01	; 1
    2c50:	9a 83       	std	Y+2, r25	; 0x02
    2c52:	89 83       	std	Y+1, r24	; 0x01
    2c54:	29 81       	ldd	r18, Y+1	; 0x01
    2c56:	3a 81       	ldd	r19, Y+2	; 0x02
    2c58:	8a 85       	ldd	r24, Y+10	; 0x0a
    2c5a:	9b 85       	ldd	r25, Y+11	; 0x0b
    2c5c:	28 17       	cp	r18, r24
    2c5e:	39 07       	cpc	r19, r25
    2c60:	0c f4       	brge	.+2      	; 0x2c64 <line+0xd0>
    2c62:	bb cf       	rjmp	.-138    	; 0x2bda <line+0x46>
	case vup:
		moves++;
		GLCD_Data(0x01);
		break;
	}
	GLCD_Command(0x40);
    2c64:	80 e4       	ldi	r24, 0x40	; 64
    2c66:	0e 94 71 0e 	call	0x1ce2	; 0x1ce2 <GLCD_Command>
	return moves;
    2c6a:	8b 81       	ldd	r24, Y+3	; 0x03
    2c6c:	9c 81       	ldd	r25, Y+4	; 0x04
}
    2c6e:	2e 96       	adiw	r28, 0x0e	; 14
    2c70:	0f b6       	in	r0, 0x3f	; 63
    2c72:	f8 94       	cli
    2c74:	de bf       	out	0x3e, r29	; 62
    2c76:	0f be       	out	0x3f, r0	; 63
    2c78:	cd bf       	out	0x3d, r28	; 61
    2c7a:	cf 91       	pop	r28
    2c7c:	df 91       	pop	r29
    2c7e:	0f 91       	pop	r16
    2c80:	08 95       	ret

00002c82 <get_firstline>:

char* get_firstline(int f, int cycle, char* space)
{
    2c82:	0f 93       	push	r16
    2c84:	1f 93       	push	r17
    2c86:	df 93       	push	r29
    2c88:	cf 93       	push	r28
    2c8a:	cd b7       	in	r28, 0x3d	; 61
    2c8c:	de b7       	in	r29, 0x3e	; 62
    2c8e:	ce 58       	subi	r28, 0x8E	; 142
    2c90:	d0 40       	sbci	r29, 0x00	; 0
    2c92:	0f b6       	in	r0, 0x3f	; 63
    2c94:	f8 94       	cli
    2c96:	de bf       	out	0x3e, r29	; 62
    2c98:	0f be       	out	0x3f, r0	; 63
    2c9a:	cd bf       	out	0x3d, r28	; 61
    2c9c:	fe 01       	movw	r30, r28
    2c9e:	e7 57       	subi	r30, 0x77	; 119
    2ca0:	ff 4f       	sbci	r31, 0xFF	; 255
    2ca2:	91 83       	std	Z+1, r25	; 0x01
    2ca4:	80 83       	st	Z, r24
    2ca6:	fe 01       	movw	r30, r28
    2ca8:	e5 57       	subi	r30, 0x75	; 117
    2caa:	ff 4f       	sbci	r31, 0xFF	; 255
    2cac:	71 83       	std	Z+1, r23	; 0x01
    2cae:	60 83       	st	Z, r22
    2cb0:	fe 01       	movw	r30, r28
    2cb2:	e3 57       	subi	r30, 0x73	; 115
    2cb4:	ff 4f       	sbci	r31, 0xFF	; 255
    2cb6:	51 83       	std	Z+1, r21	; 0x01
    2cb8:	40 83       	st	Z, r20
	char fstr[4];
	sprintf(fstr, "%d", f);
    2cba:	00 d0       	rcall	.+0      	; 0x2cbc <get_firstline+0x3a>
    2cbc:	00 d0       	rcall	.+0      	; 0x2cbe <get_firstline+0x3c>
    2cbe:	00 d0       	rcall	.+0      	; 0x2cc0 <get_firstline+0x3e>
    2cc0:	ad b7       	in	r26, 0x3d	; 61
    2cc2:	be b7       	in	r27, 0x3e	; 62
    2cc4:	11 96       	adiw	r26, 0x01	; 1
    2cc6:	ce 01       	movw	r24, r28
    2cc8:	01 96       	adiw	r24, 0x01	; 1
    2cca:	11 96       	adiw	r26, 0x01	; 1
    2ccc:	9c 93       	st	X, r25
    2cce:	8e 93       	st	-X, r24
    2cd0:	80 e6       	ldi	r24, 0x60	; 96
    2cd2:	90 e0       	ldi	r25, 0x00	; 0
    2cd4:	13 96       	adiw	r26, 0x03	; 3
    2cd6:	9c 93       	st	X, r25
    2cd8:	8e 93       	st	-X, r24
    2cda:	12 97       	sbiw	r26, 0x02	; 2
    2cdc:	fe 01       	movw	r30, r28
    2cde:	e7 57       	subi	r30, 0x77	; 119
    2ce0:	ff 4f       	sbci	r31, 0xFF	; 255
    2ce2:	80 81       	ld	r24, Z
    2ce4:	91 81       	ldd	r25, Z+1	; 0x01
    2ce6:	15 96       	adiw	r26, 0x05	; 5
    2ce8:	9c 93       	st	X, r25
    2cea:	8e 93       	st	-X, r24
    2cec:	14 97       	sbiw	r26, 0x04	; 4
    2cee:	0e 94 7a 1d 	call	0x3af4	; 0x3af4 <sprintf>
    2cf2:	8d b7       	in	r24, 0x3d	; 61
    2cf4:	9e b7       	in	r25, 0x3e	; 62
    2cf6:	06 96       	adiw	r24, 0x06	; 6
    2cf8:	0f b6       	in	r0, 0x3f	; 63
    2cfa:	f8 94       	cli
    2cfc:	9e bf       	out	0x3e, r25	; 62
    2cfe:	0f be       	out	0x3f, r0	; 63
    2d00:	8d bf       	out	0x3d, r24	; 61
	char cyclestr[4];
    sprintf(cyclestr, "%d", cycle);
    2d02:	00 d0       	rcall	.+0      	; 0x2d04 <get_firstline+0x82>
    2d04:	00 d0       	rcall	.+0      	; 0x2d06 <get_firstline+0x84>
    2d06:	00 d0       	rcall	.+0      	; 0x2d08 <get_firstline+0x86>
    2d08:	ad b7       	in	r26, 0x3d	; 61
    2d0a:	be b7       	in	r27, 0x3e	; 62
    2d0c:	11 96       	adiw	r26, 0x01	; 1
    2d0e:	ce 01       	movw	r24, r28
    2d10:	05 96       	adiw	r24, 0x05	; 5
    2d12:	11 96       	adiw	r26, 0x01	; 1
    2d14:	9c 93       	st	X, r25
    2d16:	8e 93       	st	-X, r24
    2d18:	80 e6       	ldi	r24, 0x60	; 96
    2d1a:	90 e0       	ldi	r25, 0x00	; 0
    2d1c:	13 96       	adiw	r26, 0x03	; 3
    2d1e:	9c 93       	st	X, r25
    2d20:	8e 93       	st	-X, r24
    2d22:	12 97       	sbiw	r26, 0x02	; 2
    2d24:	fe 01       	movw	r30, r28
    2d26:	e5 57       	subi	r30, 0x75	; 117
    2d28:	ff 4f       	sbci	r31, 0xFF	; 255
    2d2a:	80 81       	ld	r24, Z
    2d2c:	91 81       	ldd	r25, Z+1	; 0x01
    2d2e:	15 96       	adiw	r26, 0x05	; 5
    2d30:	9c 93       	st	X, r25
    2d32:	8e 93       	st	-X, r24
    2d34:	14 97       	sbiw	r26, 0x04	; 4
    2d36:	0e 94 7a 1d 	call	0x3af4	; 0x3af4 <sprintf>
    2d3a:	ad b7       	in	r26, 0x3d	; 61
    2d3c:	be b7       	in	r27, 0x3e	; 62
    2d3e:	16 96       	adiw	r26, 0x06	; 6
    2d40:	0f b6       	in	r0, 0x3f	; 63
    2d42:	f8 94       	cli
    2d44:	be bf       	out	0x3e, r27	; 62
    2d46:	0f be       	out	0x3f, r0	; 63
    2d48:	ad bf       	out	0x3d, r26	; 61
	char firstLine[128] = "";
    2d4a:	19 86       	std	Y+9, r1	; 0x09
    2d4c:	1a 86       	std	Y+10, r1	; 0x0a
    2d4e:	1b 86       	std	Y+11, r1	; 0x0b
    2d50:	1c 86       	std	Y+12, r1	; 0x0c
    2d52:	8c e7       	ldi	r24, 0x7C	; 124
    2d54:	fe 01       	movw	r30, r28
    2d56:	3d 96       	adiw	r30, 0x0d	; 13
    2d58:	df 01       	movw	r26, r30
    2d5a:	98 2f       	mov	r25, r24
    2d5c:	1d 92       	st	X+, r1
    2d5e:	9a 95       	dec	r25
    2d60:	e9 f7       	brne	.-6      	; 0x2d5c <get_firstline+0xda>
    strcat(firstLine, "F:");
    2d62:	8e 01       	movw	r16, r28
    2d64:	07 5f       	subi	r16, 0xF7	; 247
    2d66:	1f 4f       	sbci	r17, 0xFF	; 255
    2d68:	ce 01       	movw	r24, r28
    2d6a:	09 96       	adiw	r24, 0x09	; 9
    2d6c:	0e 94 71 1d 	call	0x3ae2	; 0x3ae2 <strlen>
    2d70:	80 0f       	add	r24, r16
    2d72:	91 1f       	adc	r25, r17
    2d74:	23 e6       	ldi	r18, 0x63	; 99
    2d76:	30 e0       	ldi	r19, 0x00	; 0
    2d78:	b9 01       	movw	r22, r18
    2d7a:	43 e0       	ldi	r20, 0x03	; 3
    2d7c:	50 e0       	ldi	r21, 0x00	; 0
    2d7e:	0e 94 56 1d 	call	0x3aac	; 0x3aac <memcpy>
    strcat(firstLine, fstr);
    2d82:	ce 01       	movw	r24, r28
    2d84:	09 96       	adiw	r24, 0x09	; 9
    2d86:	9e 01       	movw	r18, r28
    2d88:	2f 5f       	subi	r18, 0xFF	; 255
    2d8a:	3f 4f       	sbci	r19, 0xFF	; 255
    2d8c:	b9 01       	movw	r22, r18
    2d8e:	0e 94 5f 1d 	call	0x3abe	; 0x3abe <strcat>
    strcat(firstLine, " KHz");
    2d92:	ce 01       	movw	r24, r28
    2d94:	09 96       	adiw	r24, 0x09	; 9
    2d96:	26 e6       	ldi	r18, 0x66	; 102
    2d98:	30 e0       	ldi	r19, 0x00	; 0
    2d9a:	b9 01       	movw	r22, r18
    2d9c:	0e 94 5f 1d 	call	0x3abe	; 0x3abe <strcat>
    strcat(firstLine, space);
    2da0:	ce 01       	movw	r24, r28
    2da2:	09 96       	adiw	r24, 0x09	; 9
    2da4:	fe 01       	movw	r30, r28
    2da6:	e3 57       	subi	r30, 0x73	; 115
    2da8:	ff 4f       	sbci	r31, 0xFF	; 255
    2daa:	20 81       	ld	r18, Z
    2dac:	31 81       	ldd	r19, Z+1	; 0x01
    2dae:	b9 01       	movw	r22, r18
    2db0:	0e 94 5f 1d 	call	0x3abe	; 0x3abe <strcat>
    strcat(firstLine, "Duty:");
    2db4:	ce 01       	movw	r24, r28
    2db6:	09 96       	adiw	r24, 0x09	; 9
    2db8:	2b e6       	ldi	r18, 0x6B	; 107
    2dba:	30 e0       	ldi	r19, 0x00	; 0
    2dbc:	b9 01       	movw	r22, r18
    2dbe:	0e 94 5f 1d 	call	0x3abe	; 0x3abe <strcat>
    strcat(firstLine, cyclestr);
    2dc2:	ce 01       	movw	r24, r28
    2dc4:	09 96       	adiw	r24, 0x09	; 9
    2dc6:	9e 01       	movw	r18, r28
    2dc8:	2b 5f       	subi	r18, 0xFB	; 251
    2dca:	3f 4f       	sbci	r19, 0xFF	; 255
    2dcc:	b9 01       	movw	r22, r18
    2dce:	0e 94 5f 1d 	call	0x3abe	; 0x3abe <strcat>
    strcat(firstLine, "%");
    2dd2:	ce 01       	movw	r24, r28
    2dd4:	09 96       	adiw	r24, 0x09	; 9
    2dd6:	21 e7       	ldi	r18, 0x71	; 113
    2dd8:	30 e0       	ldi	r19, 0x00	; 0
    2dda:	b9 01       	movw	r22, r18
    2ddc:	0e 94 5f 1d 	call	0x3abe	; 0x3abe <strcat>
    return firstLine;
    2de0:	ce 01       	movw	r24, r28
    2de2:	09 96       	adiw	r24, 0x09	; 9
}
    2de4:	c2 57       	subi	r28, 0x72	; 114
    2de6:	df 4f       	sbci	r29, 0xFF	; 255
    2de8:	0f b6       	in	r0, 0x3f	; 63
    2dea:	f8 94       	cli
    2dec:	de bf       	out	0x3e, r29	; 62
    2dee:	0f be       	out	0x3f, r0	; 63
    2df0:	cd bf       	out	0x3d, r28	; 61
    2df2:	cf 91       	pop	r28
    2df4:	df 91       	pop	r29
    2df6:	1f 91       	pop	r17
    2df8:	0f 91       	pop	r16
    2dfa:	08 95       	ret

00002dfc <draw_line>:
void draw_line(int f, int cycle)
{
    2dfc:	0f 93       	push	r16
    2dfe:	df 93       	push	r29
    2e00:	cf 93       	push	r28
    2e02:	cd b7       	in	r28, 0x3d	; 61
    2e04:	de b7       	in	r29, 0x3e	; 62
    2e06:	2b 97       	sbiw	r28, 0x0b	; 11
    2e08:	0f b6       	in	r0, 0x3f	; 63
    2e0a:	f8 94       	cli
    2e0c:	de bf       	out	0x3e, r29	; 62
    2e0e:	0f be       	out	0x3f, r0	; 63
    2e10:	cd bf       	out	0x3d, r28	; 61
    2e12:	9e 83       	std	Y+6, r25	; 0x06
    2e14:	8d 83       	std	Y+5, r24	; 0x05
    2e16:	78 87       	std	Y+8, r23	; 0x08
    2e18:	6f 83       	std	Y+7, r22	; 0x07
	char l = 120;
    2e1a:	88 e7       	ldi	r24, 0x78	; 120
    2e1c:	8c 83       	std	Y+4, r24	; 0x04
	char moves = 0;
    2e1e:	1b 82       	std	Y+3, r1	; 0x03
	dir d = left;
    2e20:	1a 82       	std	Y+2, r1	; 0x02
	char r = 128;
    2e22:	80 e8       	ldi	r24, 0x80	; 128
    2e24:	89 83       	std	Y+1, r24	; 0x01
	if(cycle == 100)
    2e26:	8f 81       	ldd	r24, Y+7	; 0x07
    2e28:	98 85       	ldd	r25, Y+8	; 0x08
    2e2a:	84 36       	cpi	r24, 0x64	; 100
    2e2c:	91 05       	cpc	r25, r1
    2e2e:	e9 f4       	brne	.+58     	; 0x2e6a <draw_line+0x6e>
	{
		line(vup, 0, 3, 64, d);
    2e30:	81 e0       	ldi	r24, 0x01	; 1
    2e32:	60 e0       	ldi	r22, 0x00	; 0
    2e34:	70 e0       	ldi	r23, 0x00	; 0
    2e36:	43 e0       	ldi	r20, 0x03	; 3
    2e38:	50 e0       	ldi	r21, 0x00	; 0
    2e3a:	20 e4       	ldi	r18, 0x40	; 64
    2e3c:	30 e0       	ldi	r19, 0x00	; 0
    2e3e:	0a 81       	ldd	r16, Y+2	; 0x02
    2e40:	0e 94 ca 15 	call	0x2b94	; 0x2b94 <line>
		d = !d;
    2e44:	19 86       	std	Y+9, r1	; 0x09
    2e46:	8a 81       	ldd	r24, Y+2	; 0x02
    2e48:	88 23       	and	r24, r24
    2e4a:	11 f4       	brne	.+4      	; 0x2e50 <draw_line+0x54>
    2e4c:	21 e0       	ldi	r18, 0x01	; 1
    2e4e:	29 87       	std	Y+9, r18	; 0x09
    2e50:	49 85       	ldd	r20, Y+9	; 0x09
    2e52:	4a 83       	std	Y+2, r20	; 0x02
		line(vup, 0, 3, 64, d);
    2e54:	81 e0       	ldi	r24, 0x01	; 1
    2e56:	60 e0       	ldi	r22, 0x00	; 0
    2e58:	70 e0       	ldi	r23, 0x00	; 0
    2e5a:	43 e0       	ldi	r20, 0x03	; 3
    2e5c:	50 e0       	ldi	r21, 0x00	; 0
    2e5e:	20 e4       	ldi	r18, 0x40	; 64
    2e60:	30 e0       	ldi	r19, 0x00	; 0
    2e62:	0a 81       	ldd	r16, Y+2	; 0x02
    2e64:	0e 94 ca 15 	call	0x2b94	; 0x2b94 <line>
    2e68:	82 c0       	rjmp	.+260    	; 0x2f6e <draw_line+0x172>
	}
	else if(cycle == 0)
    2e6a:	8f 81       	ldd	r24, Y+7	; 0x07
    2e6c:	98 85       	ldd	r25, Y+8	; 0x08
    2e6e:	00 97       	sbiw	r24, 0x00	; 0
    2e70:	e9 f4       	brne	.+58     	; 0x2eac <draw_line+0xb0>
	{
		line(vdown, 0, 5, 64, d);
    2e72:	82 e0       	ldi	r24, 0x02	; 2
    2e74:	60 e0       	ldi	r22, 0x00	; 0
    2e76:	70 e0       	ldi	r23, 0x00	; 0
    2e78:	45 e0       	ldi	r20, 0x05	; 5
    2e7a:	50 e0       	ldi	r21, 0x00	; 0
    2e7c:	20 e4       	ldi	r18, 0x40	; 64
    2e7e:	30 e0       	ldi	r19, 0x00	; 0
    2e80:	0a 81       	ldd	r16, Y+2	; 0x02
    2e82:	0e 94 ca 15 	call	0x2b94	; 0x2b94 <line>
		d = !d;
    2e86:	1a 86       	std	Y+10, r1	; 0x0a
    2e88:	8a 81       	ldd	r24, Y+2	; 0x02
    2e8a:	88 23       	and	r24, r24
    2e8c:	11 f4       	brne	.+4      	; 0x2e92 <draw_line+0x96>
    2e8e:	51 e0       	ldi	r21, 0x01	; 1
    2e90:	5a 87       	std	Y+10, r21	; 0x0a
    2e92:	8a 85       	ldd	r24, Y+10	; 0x0a
    2e94:	8a 83       	std	Y+2, r24	; 0x02
		line(vdown, 0, 5, 64, d);
    2e96:	82 e0       	ldi	r24, 0x02	; 2
    2e98:	60 e0       	ldi	r22, 0x00	; 0
    2e9a:	70 e0       	ldi	r23, 0x00	; 0
    2e9c:	45 e0       	ldi	r20, 0x05	; 5
    2e9e:	50 e0       	ldi	r21, 0x00	; 0
    2ea0:	20 e4       	ldi	r18, 0x40	; 64
    2ea2:	30 e0       	ldi	r19, 0x00	; 0
    2ea4:	0a 81       	ldd	r16, Y+2	; 0x02
    2ea6:	0e 94 ca 15 	call	0x2b94	; 0x2b94 <line>
    2eaa:	61 c0       	rjmp	.+194    	; 0x2f6e <draw_line+0x172>
	}
	else
	{
		moves += line(h, 0, 4, 1, d);
    2eac:	80 e0       	ldi	r24, 0x00	; 0
    2eae:	60 e0       	ldi	r22, 0x00	; 0
    2eb0:	70 e0       	ldi	r23, 0x00	; 0
    2eb2:	44 e0       	ldi	r20, 0x04	; 4
    2eb4:	50 e0       	ldi	r21, 0x00	; 0
    2eb6:	21 e0       	ldi	r18, 0x01	; 1
    2eb8:	30 e0       	ldi	r19, 0x00	; 0
    2eba:	0a 81       	ldd	r16, Y+2	; 0x02
    2ebc:	0e 94 ca 15 	call	0x2b94	; 0x2b94 <line>
    2ec0:	98 2f       	mov	r25, r24
    2ec2:	8b 81       	ldd	r24, Y+3	; 0x03
    2ec4:	89 0f       	add	r24, r25
    2ec6:	8b 83       	std	Y+3, r24	; 0x03
		r = r - moves;
    2ec8:	99 81       	ldd	r25, Y+1	; 0x01
    2eca:	8b 81       	ldd	r24, Y+3	; 0x03
    2ecc:	29 2f       	mov	r18, r25
    2ece:	28 1b       	sub	r18, r24
    2ed0:	82 2f       	mov	r24, r18
    2ed2:	89 83       	std	Y+1, r24	; 0x01
		if(r - l <= 64)
    2ed4:	89 81       	ldd	r24, Y+1	; 0x01
    2ed6:	28 2f       	mov	r18, r24
    2ed8:	30 e0       	ldi	r19, 0x00	; 0
    2eda:	8c 81       	ldd	r24, Y+4	; 0x04
    2edc:	88 2f       	mov	r24, r24
    2ede:	90 e0       	ldi	r25, 0x00	; 0
    2ee0:	a9 01       	movw	r20, r18
    2ee2:	48 1b       	sub	r20, r24
    2ee4:	59 0b       	sbc	r21, r25
    2ee6:	ca 01       	movw	r24, r20
    2ee8:	81 34       	cpi	r24, 0x41	; 65
    2eea:	91 05       	cpc	r25, r1
    2eec:	94 f5       	brge	.+100    	; 0x2f52 <draw_line+0x156>
		{
			r = r - l;
    2eee:	99 81       	ldd	r25, Y+1	; 0x01
    2ef0:	8c 81       	ldd	r24, Y+4	; 0x04
    2ef2:	59 2f       	mov	r21, r25
    2ef4:	58 1b       	sub	r21, r24
    2ef6:	85 2f       	mov	r24, r21
    2ef8:	89 83       	std	Y+1, r24	; 0x01
			l = 64 - moves;
    2efa:	90 e4       	ldi	r25, 0x40	; 64
    2efc:	8b 81       	ldd	r24, Y+3	; 0x03
    2efe:	29 2f       	mov	r18, r25
    2f00:	28 1b       	sub	r18, r24
    2f02:	82 2f       	mov	r24, r18
    2f04:	8c 83       	std	Y+4, r24	; 0x04
			line(vup, moves, 3, l, d);
    2f06:	8b 81       	ldd	r24, Y+3	; 0x03
    2f08:	28 2f       	mov	r18, r24
    2f0a:	30 e0       	ldi	r19, 0x00	; 0
    2f0c:	8c 81       	ldd	r24, Y+4	; 0x04
    2f0e:	e8 2f       	mov	r30, r24
    2f10:	f0 e0       	ldi	r31, 0x00	; 0
    2f12:	81 e0       	ldi	r24, 0x01	; 1
    2f14:	b9 01       	movw	r22, r18
    2f16:	43 e0       	ldi	r20, 0x03	; 3
    2f18:	50 e0       	ldi	r21, 0x00	; 0
    2f1a:	9f 01       	movw	r18, r30
    2f1c:	0a 81       	ldd	r16, Y+2	; 0x02
    2f1e:	0e 94 ca 15 	call	0x2b94	; 0x2b94 <line>
			d = !d;
    2f22:	1b 86       	std	Y+11, r1	; 0x0b
    2f24:	8a 81       	ldd	r24, Y+2	; 0x02
    2f26:	88 23       	and	r24, r24
    2f28:	11 f4       	brne	.+4      	; 0x2f2e <draw_line+0x132>
    2f2a:	41 e0       	ldi	r20, 0x01	; 1
    2f2c:	4b 87       	std	Y+11, r20	; 0x0b
    2f2e:	5b 85       	ldd	r21, Y+11	; 0x0b
    2f30:	5a 83       	std	Y+2, r21	; 0x02
			moves = 0;
    2f32:	1b 82       	std	Y+3, r1	; 0x03
			line(vup, moves, 3, r, d);
    2f34:	8b 81       	ldd	r24, Y+3	; 0x03
    2f36:	28 2f       	mov	r18, r24
    2f38:	30 e0       	ldi	r19, 0x00	; 0
    2f3a:	89 81       	ldd	r24, Y+1	; 0x01
    2f3c:	e8 2f       	mov	r30, r24
    2f3e:	f0 e0       	ldi	r31, 0x00	; 0
    2f40:	81 e0       	ldi	r24, 0x01	; 1
    2f42:	b9 01       	movw	r22, r18
    2f44:	43 e0       	ldi	r20, 0x03	; 3
    2f46:	50 e0       	ldi	r21, 0x00	; 0
    2f48:	9f 01       	movw	r18, r30
    2f4a:	0a 81       	ldd	r16, Y+2	; 0x02
    2f4c:	0e 94 ca 15 	call	0x2b94	; 0x2b94 <line>
    2f50:	0e c0       	rjmp	.+28     	; 0x2f6e <draw_line+0x172>
		}
		else
		{
			line(vup, moves, 3, l, d);
    2f52:	8b 81       	ldd	r24, Y+3	; 0x03
    2f54:	28 2f       	mov	r18, r24
    2f56:	30 e0       	ldi	r19, 0x00	; 0
    2f58:	8c 81       	ldd	r24, Y+4	; 0x04
    2f5a:	e8 2f       	mov	r30, r24
    2f5c:	f0 e0       	ldi	r31, 0x00	; 0
    2f5e:	81 e0       	ldi	r24, 0x01	; 1
    2f60:	b9 01       	movw	r22, r18
    2f62:	43 e0       	ldi	r20, 0x03	; 3
    2f64:	50 e0       	ldi	r21, 0x00	; 0
    2f66:	9f 01       	movw	r18, r30
    2f68:	0a 81       	ldd	r16, Y+2	; 0x02
    2f6a:	0e 94 ca 15 	call	0x2b94	; 0x2b94 <line>
		}
	}
}
    2f6e:	2b 96       	adiw	r28, 0x0b	; 11
    2f70:	0f b6       	in	r0, 0x3f	; 63
    2f72:	f8 94       	cli
    2f74:	de bf       	out	0x3e, r29	; 62
    2f76:	0f be       	out	0x3f, r0	; 63
    2f78:	cd bf       	out	0x3d, r28	; 61
    2f7a:	cf 91       	pop	r28
    2f7c:	df 91       	pop	r29
    2f7e:	0f 91       	pop	r16
    2f80:	08 95       	ret

00002f82 <main>:

int main(void)
{
    2f82:	0f 93       	push	r16
    2f84:	df 93       	push	r29
    2f86:	cf 93       	push	r28
    2f88:	cd b7       	in	r28, 0x3d	; 61
    2f8a:	de b7       	in	r29, 0x3e	; 62
    2f8c:	c3 5a       	subi	r28, 0xA3	; 163
    2f8e:	d0 40       	sbci	r29, 0x00	; 0
    2f90:	0f b6       	in	r0, 0x3f	; 63
    2f92:	f8 94       	cli
    2f94:	de bf       	out	0x3e, r29	; 62
    2f96:	0f be       	out	0x3f, r0	; 63
    2f98:	cd bf       	out	0x3d, r28	; 61
	char breaks = 2;
    2f9a:	82 e0       	ldi	r24, 0x02	; 2
    2f9c:	8a 87       	std	Y+10, r24	; 0x0a
	char cap = 128 - breaks;
    2f9e:	90 e8       	ldi	r25, 0x80	; 128
    2fa0:	8a 85       	ldd	r24, Y+10	; 0x0a
    2fa2:	29 2f       	mov	r18, r25
    2fa4:	28 1b       	sub	r18, r24
    2fa6:	82 2f       	mov	r24, r18
    2fa8:	89 87       	std	Y+9, r24	; 0x09
    int f = 16;
    2faa:	80 e1       	ldi	r24, 0x10	; 16
    2fac:	90 e0       	ldi	r25, 0x00	; 0
    2fae:	98 87       	std	Y+8, r25	; 0x08
    2fb0:	8f 83       	std	Y+7, r24	; 0x07
    int cycle = 50;
    2fb2:	82 e3       	ldi	r24, 0x32	; 50
    2fb4:	90 e0       	ldi	r25, 0x00	; 0
    2fb6:	9e 83       	std	Y+6, r25	; 0x06
    2fb8:	8d 83       	std	Y+5, r24	; 0x05
    int x = 90;
    2fba:	8a e5       	ldi	r24, 0x5A	; 90
    2fbc:	90 e0       	ldi	r25, 0x00	; 0
    2fbe:	9c 83       	std	Y+4, r25	; 0x04
    2fc0:	8b 83       	std	Y+3, r24	; 0x03
    int move = 0;
    2fc2:	1a 82       	std	Y+2, r1	; 0x02
    2fc4:	19 82       	std	Y+1, r1	; 0x01
    char space[20] = "    ";
    2fc6:	ce 01       	movw	r24, r28
    2fc8:	0b 96       	adiw	r24, 0x0b	; 11
    2fca:	c1 56       	subi	r28, 0x61	; 97
    2fcc:	df 4f       	sbci	r29, 0xFF	; 255
    2fce:	99 83       	std	Y+1, r25	; 0x01
    2fd0:	88 83       	st	Y, r24
    2fd2:	cf 59       	subi	r28, 0x9F	; 159
    2fd4:	d0 40       	sbci	r29, 0x00	; 0
    2fd6:	a3 e7       	ldi	r26, 0x73	; 115
    2fd8:	b0 e0       	ldi	r27, 0x00	; 0
    2fda:	cf 55       	subi	r28, 0x5F	; 95
    2fdc:	df 4f       	sbci	r29, 0xFF	; 255
    2fde:	b9 83       	std	Y+1, r27	; 0x01
    2fe0:	a8 83       	st	Y, r26
    2fe2:	c1 5a       	subi	r28, 0xA1	; 161
    2fe4:	d0 40       	sbci	r29, 0x00	; 0
    2fe6:	b5 e0       	ldi	r27, 0x05	; 5
    2fe8:	cd 55       	subi	r28, 0x5D	; 93
    2fea:	df 4f       	sbci	r29, 0xFF	; 255
    2fec:	b8 83       	st	Y, r27
    2fee:	c3 5a       	subi	r28, 0xA3	; 163
    2ff0:	d0 40       	sbci	r29, 0x00	; 0
    2ff2:	cf 55       	subi	r28, 0x5F	; 95
    2ff4:	df 4f       	sbci	r29, 0xFF	; 255
    2ff6:	e8 81       	ld	r30, Y
    2ff8:	f9 81       	ldd	r31, Y+1	; 0x01
    2ffa:	c1 5a       	subi	r28, 0xA1	; 161
    2ffc:	d0 40       	sbci	r29, 0x00	; 0
    2ffe:	00 80       	ld	r0, Z
    3000:	cf 55       	subi	r28, 0x5F	; 95
    3002:	df 4f       	sbci	r29, 0xFF	; 255
    3004:	88 81       	ld	r24, Y
    3006:	99 81       	ldd	r25, Y+1	; 0x01
    3008:	c1 5a       	subi	r28, 0xA1	; 161
    300a:	d0 40       	sbci	r29, 0x00	; 0
    300c:	01 96       	adiw	r24, 0x01	; 1
    300e:	cf 55       	subi	r28, 0x5F	; 95
    3010:	df 4f       	sbci	r29, 0xFF	; 255
    3012:	99 83       	std	Y+1, r25	; 0x01
    3014:	88 83       	st	Y, r24
    3016:	c1 5a       	subi	r28, 0xA1	; 161
    3018:	d0 40       	sbci	r29, 0x00	; 0
    301a:	c1 56       	subi	r28, 0x61	; 97
    301c:	df 4f       	sbci	r29, 0xFF	; 255
    301e:	a8 81       	ld	r26, Y
    3020:	b9 81       	ldd	r27, Y+1	; 0x01
    3022:	cf 59       	subi	r28, 0x9F	; 159
    3024:	d0 40       	sbci	r29, 0x00	; 0
    3026:	0c 92       	st	X, r0
    3028:	c1 56       	subi	r28, 0x61	; 97
    302a:	df 4f       	sbci	r29, 0xFF	; 255
    302c:	e8 81       	ld	r30, Y
    302e:	f9 81       	ldd	r31, Y+1	; 0x01
    3030:	cf 59       	subi	r28, 0x9F	; 159
    3032:	d0 40       	sbci	r29, 0x00	; 0
    3034:	31 96       	adiw	r30, 0x01	; 1
    3036:	c1 56       	subi	r28, 0x61	; 97
    3038:	df 4f       	sbci	r29, 0xFF	; 255
    303a:	f9 83       	std	Y+1, r31	; 0x01
    303c:	e8 83       	st	Y, r30
    303e:	cf 59       	subi	r28, 0x9F	; 159
    3040:	d0 40       	sbci	r29, 0x00	; 0
    3042:	cd 55       	subi	r28, 0x5D	; 93
    3044:	df 4f       	sbci	r29, 0xFF	; 255
    3046:	f8 81       	ld	r31, Y
    3048:	c3 5a       	subi	r28, 0xA3	; 163
    304a:	d0 40       	sbci	r29, 0x00	; 0
    304c:	f1 50       	subi	r31, 0x01	; 1
    304e:	cd 55       	subi	r28, 0x5D	; 93
    3050:	df 4f       	sbci	r29, 0xFF	; 255
    3052:	f8 83       	st	Y, r31
    3054:	c3 5a       	subi	r28, 0xA3	; 163
    3056:	d0 40       	sbci	r29, 0x00	; 0
    3058:	cd 55       	subi	r28, 0x5D	; 93
    305a:	df 4f       	sbci	r29, 0xFF	; 255
    305c:	28 81       	ld	r18, Y
    305e:	c3 5a       	subi	r28, 0xA3	; 163
    3060:	d0 40       	sbci	r29, 0x00	; 0
    3062:	22 23       	and	r18, r18
    3064:	31 f6       	brne	.-116    	; 0x2ff2 <main+0x70>
    3066:	8f e0       	ldi	r24, 0x0F	; 15
    3068:	fe 01       	movw	r30, r28
    306a:	70 96       	adiw	r30, 0x10	; 16
    306c:	df 01       	movw	r26, r30
    306e:	28 2f       	mov	r18, r24
    3070:	1d 92       	st	X+, r1
    3072:	2a 95       	dec	r18
    3074:	e9 f7       	brne	.-6      	; 0x3070 <main+0xee>
    char firstLine[128];

    GLCD_Init();         /* Initialize GLCD */
    3076:	0e 94 d1 11 	call	0x23a2	; 0x23a2 <GLCD_Init>
    GLCD_ClearAll();     /* Clear all GLCD display */
    307a:	0e 94 74 12 	call	0x24e8	; 0x24e8 <GLCD_ClearAll>
    while (1)
    {
        strcat(' ', ' ');
    307e:	80 e2       	ldi	r24, 0x20	; 32
    3080:	90 e0       	ldi	r25, 0x00	; 0
    3082:	60 e2       	ldi	r22, 0x20	; 32
    3084:	70 e0       	ldi	r23, 0x00	; 0
    3086:	0e 94 5f 1d 	call	0x3abe	; 0x3abe <strcat>
    	strcpy(firstLine, get_firstline(f, cycle, space));
    308a:	8f 81       	ldd	r24, Y+7	; 0x07
    308c:	98 85       	ldd	r25, Y+8	; 0x08
    308e:	2d 81       	ldd	r18, Y+5	; 0x05
    3090:	3e 81       	ldd	r19, Y+6	; 0x06
    3092:	ae 01       	movw	r20, r28
    3094:	45 5f       	subi	r20, 0xF5	; 245
    3096:	5f 4f       	sbci	r21, 0xFF	; 255
    3098:	b9 01       	movw	r22, r18
    309a:	0e 94 41 16 	call	0x2c82	; 0x2c82 <get_firstline>
    309e:	9c 01       	movw	r18, r24
    30a0:	ce 01       	movw	r24, r28
    30a2:	4f 96       	adiw	r24, 0x1f	; 31
    30a4:	b9 01       	movw	r22, r18
    30a6:	0e 94 6a 1d 	call	0x3ad4	; 0x3ad4 <strcpy>
    	GLCD_String(0, firstLine); /* Print String on 0th page of display */
    30aa:	9e 01       	movw	r18, r28
    30ac:	21 5e       	subi	r18, 0xE1	; 225
    30ae:	3f 4f       	sbci	r19, 0xFF	; 255
    30b0:	80 e0       	ldi	r24, 0x00	; 0
    30b2:	b9 01       	movw	r22, r18
    30b4:	0e 94 72 13 	call	0x26e4	; 0x26e4 <GLCD_String>

		line(vup, 0, 3, 8, left);
    30b8:	81 e0       	ldi	r24, 0x01	; 1
    30ba:	60 e0       	ldi	r22, 0x00	; 0
    30bc:	70 e0       	ldi	r23, 0x00	; 0
    30be:	43 e0       	ldi	r20, 0x03	; 3
    30c0:	50 e0       	ldi	r21, 0x00	; 0
    30c2:	28 e0       	ldi	r18, 0x08	; 8
    30c4:	30 e0       	ldi	r19, 0x00	; 0
    30c6:	00 e0       	ldi	r16, 0x00	; 0
    30c8:	0e 94 ca 15 	call	0x2b94	; 0x2b94 <line>
		line(vdown, 8, 3, 8, left);
    30cc:	82 e0       	ldi	r24, 0x02	; 2
    30ce:	68 e0       	ldi	r22, 0x08	; 8
    30d0:	70 e0       	ldi	r23, 0x00	; 0
    30d2:	43 e0       	ldi	r20, 0x03	; 3
    30d4:	50 e0       	ldi	r21, 0x00	; 0
    30d6:	28 e0       	ldi	r18, 0x08	; 8
    30d8:	30 e0       	ldi	r19, 0x00	; 0
    30da:	00 e0       	ldi	r16, 0x00	; 0
    30dc:	0e 94 ca 15 	call	0x2b94	; 0x2b94 <line>
		line(vup, 16, 3, 8, left);
    30e0:	81 e0       	ldi	r24, 0x01	; 1
    30e2:	60 e1       	ldi	r22, 0x10	; 16
    30e4:	70 e0       	ldi	r23, 0x00	; 0
    30e6:	43 e0       	ldi	r20, 0x03	; 3
    30e8:	50 e0       	ldi	r21, 0x00	; 0
    30ea:	28 e0       	ldi	r18, 0x08	; 8
    30ec:	30 e0       	ldi	r19, 0x00	; 0
    30ee:	00 e0       	ldi	r16, 0x00	; 0
    30f0:	0e 94 ca 15 	call	0x2b94	; 0x2b94 <line>
		line(vdown, 24, 3, 8, left);
    30f4:	82 e0       	ldi	r24, 0x02	; 2
    30f6:	68 e1       	ldi	r22, 0x18	; 24
    30f8:	70 e0       	ldi	r23, 0x00	; 0
    30fa:	43 e0       	ldi	r20, 0x03	; 3
    30fc:	50 e0       	ldi	r21, 0x00	; 0
    30fe:	28 e0       	ldi	r18, 0x08	; 8
    3100:	30 e0       	ldi	r19, 0x00	; 0
    3102:	00 e0       	ldi	r16, 0x00	; 0
    3104:	0e 94 ca 15 	call	0x2b94	; 0x2b94 <line>
    3108:	ba cf       	rjmp	.-140    	; 0x307e <main+0xfc>

0000310a <Dio_ConfigChannel>:
 *  Created on: Feb 12, 2022
 *      Author: 20100
 */
#include "Dio.h"
void Dio_ConfigChannel(port_type port,pin_type pin,direction_type direction)
{
    310a:	df 93       	push	r29
    310c:	cf 93       	push	r28
    310e:	00 d0       	rcall	.+0      	; 0x3110 <Dio_ConfigChannel+0x6>
    3110:	00 d0       	rcall	.+0      	; 0x3112 <Dio_ConfigChannel+0x8>
    3112:	0f 92       	push	r0
    3114:	cd b7       	in	r28, 0x3d	; 61
    3116:	de b7       	in	r29, 0x3e	; 62
    3118:	89 83       	std	Y+1, r24	; 0x01
    311a:	6a 83       	std	Y+2, r22	; 0x02
    311c:	4b 83       	std	Y+3, r20	; 0x03
	switch (port)
    311e:	89 81       	ldd	r24, Y+1	; 0x01
    3120:	28 2f       	mov	r18, r24
    3122:	30 e0       	ldi	r19, 0x00	; 0
    3124:	3d 83       	std	Y+5, r19	; 0x05
    3126:	2c 83       	std	Y+4, r18	; 0x04
    3128:	8c 81       	ldd	r24, Y+4	; 0x04
    312a:	9d 81       	ldd	r25, Y+5	; 0x05
    312c:	81 30       	cpi	r24, 0x01	; 1
    312e:	91 05       	cpc	r25, r1
    3130:	09 f4       	brne	.+2      	; 0x3134 <Dio_ConfigChannel+0x2a>
    3132:	43 c0       	rjmp	.+134    	; 0x31ba <Dio_ConfigChannel+0xb0>
    3134:	2c 81       	ldd	r18, Y+4	; 0x04
    3136:	3d 81       	ldd	r19, Y+5	; 0x05
    3138:	22 30       	cpi	r18, 0x02	; 2
    313a:	31 05       	cpc	r19, r1
    313c:	2c f4       	brge	.+10     	; 0x3148 <Dio_ConfigChannel+0x3e>
    313e:	8c 81       	ldd	r24, Y+4	; 0x04
    3140:	9d 81       	ldd	r25, Y+5	; 0x05
    3142:	00 97       	sbiw	r24, 0x00	; 0
    3144:	71 f0       	breq	.+28     	; 0x3162 <Dio_ConfigChannel+0x58>
    3146:	bc c0       	rjmp	.+376    	; 0x32c0 <Dio_ConfigChannel+0x1b6>
    3148:	2c 81       	ldd	r18, Y+4	; 0x04
    314a:	3d 81       	ldd	r19, Y+5	; 0x05
    314c:	22 30       	cpi	r18, 0x02	; 2
    314e:	31 05       	cpc	r19, r1
    3150:	09 f4       	brne	.+2      	; 0x3154 <Dio_ConfigChannel+0x4a>
    3152:	5f c0       	rjmp	.+190    	; 0x3212 <Dio_ConfigChannel+0x108>
    3154:	8c 81       	ldd	r24, Y+4	; 0x04
    3156:	9d 81       	ldd	r25, Y+5	; 0x05
    3158:	83 30       	cpi	r24, 0x03	; 3
    315a:	91 05       	cpc	r25, r1
    315c:	09 f4       	brne	.+2      	; 0x3160 <Dio_ConfigChannel+0x56>
    315e:	85 c0       	rjmp	.+266    	; 0x326a <Dio_ConfigChannel+0x160>
    3160:	af c0       	rjmp	.+350    	; 0x32c0 <Dio_ConfigChannel+0x1b6>
	{
	case DIO_PORTA:
		if(direction == INPUT)
    3162:	8b 81       	ldd	r24, Y+3	; 0x03
    3164:	88 23       	and	r24, r24
    3166:	a9 f4       	brne	.+42     	; 0x3192 <Dio_ConfigChannel+0x88>
		{
			CLR_BIT(DIO_DDRA_REG,pin);
    3168:	aa e3       	ldi	r26, 0x3A	; 58
    316a:	b0 e0       	ldi	r27, 0x00	; 0
    316c:	ea e3       	ldi	r30, 0x3A	; 58
    316e:	f0 e0       	ldi	r31, 0x00	; 0
    3170:	80 81       	ld	r24, Z
    3172:	48 2f       	mov	r20, r24
    3174:	8a 81       	ldd	r24, Y+2	; 0x02
    3176:	28 2f       	mov	r18, r24
    3178:	30 e0       	ldi	r19, 0x00	; 0
    317a:	81 e0       	ldi	r24, 0x01	; 1
    317c:	90 e0       	ldi	r25, 0x00	; 0
    317e:	02 2e       	mov	r0, r18
    3180:	02 c0       	rjmp	.+4      	; 0x3186 <Dio_ConfigChannel+0x7c>
    3182:	88 0f       	add	r24, r24
    3184:	99 1f       	adc	r25, r25
    3186:	0a 94       	dec	r0
    3188:	e2 f7       	brpl	.-8      	; 0x3182 <Dio_ConfigChannel+0x78>
    318a:	80 95       	com	r24
    318c:	84 23       	and	r24, r20
    318e:	8c 93       	st	X, r24
    3190:	97 c0       	rjmp	.+302    	; 0x32c0 <Dio_ConfigChannel+0x1b6>
		}
		else
		{
			SET_BIT(DIO_DDRA_REG,pin);
    3192:	aa e3       	ldi	r26, 0x3A	; 58
    3194:	b0 e0       	ldi	r27, 0x00	; 0
    3196:	ea e3       	ldi	r30, 0x3A	; 58
    3198:	f0 e0       	ldi	r31, 0x00	; 0
    319a:	80 81       	ld	r24, Z
    319c:	48 2f       	mov	r20, r24
    319e:	8a 81       	ldd	r24, Y+2	; 0x02
    31a0:	28 2f       	mov	r18, r24
    31a2:	30 e0       	ldi	r19, 0x00	; 0
    31a4:	81 e0       	ldi	r24, 0x01	; 1
    31a6:	90 e0       	ldi	r25, 0x00	; 0
    31a8:	02 2e       	mov	r0, r18
    31aa:	02 c0       	rjmp	.+4      	; 0x31b0 <Dio_ConfigChannel+0xa6>
    31ac:	88 0f       	add	r24, r24
    31ae:	99 1f       	adc	r25, r25
    31b0:	0a 94       	dec	r0
    31b2:	e2 f7       	brpl	.-8      	; 0x31ac <Dio_ConfigChannel+0xa2>
    31b4:	84 2b       	or	r24, r20
    31b6:	8c 93       	st	X, r24
    31b8:	83 c0       	rjmp	.+262    	; 0x32c0 <Dio_ConfigChannel+0x1b6>
		}
		break;

	case DIO_PORTB:
		if(direction == INPUT)
    31ba:	8b 81       	ldd	r24, Y+3	; 0x03
    31bc:	88 23       	and	r24, r24
    31be:	a9 f4       	brne	.+42     	; 0x31ea <Dio_ConfigChannel+0xe0>
		{
			CLR_BIT(DIO_DDRB_REG,pin);
    31c0:	a7 e3       	ldi	r26, 0x37	; 55
    31c2:	b0 e0       	ldi	r27, 0x00	; 0
    31c4:	e7 e3       	ldi	r30, 0x37	; 55
    31c6:	f0 e0       	ldi	r31, 0x00	; 0
    31c8:	80 81       	ld	r24, Z
    31ca:	48 2f       	mov	r20, r24
    31cc:	8a 81       	ldd	r24, Y+2	; 0x02
    31ce:	28 2f       	mov	r18, r24
    31d0:	30 e0       	ldi	r19, 0x00	; 0
    31d2:	81 e0       	ldi	r24, 0x01	; 1
    31d4:	90 e0       	ldi	r25, 0x00	; 0
    31d6:	02 2e       	mov	r0, r18
    31d8:	02 c0       	rjmp	.+4      	; 0x31de <Dio_ConfigChannel+0xd4>
    31da:	88 0f       	add	r24, r24
    31dc:	99 1f       	adc	r25, r25
    31de:	0a 94       	dec	r0
    31e0:	e2 f7       	brpl	.-8      	; 0x31da <Dio_ConfigChannel+0xd0>
    31e2:	80 95       	com	r24
    31e4:	84 23       	and	r24, r20
    31e6:	8c 93       	st	X, r24
    31e8:	6b c0       	rjmp	.+214    	; 0x32c0 <Dio_ConfigChannel+0x1b6>
		}
		else
		{
			SET_BIT(DIO_DDRB_REG,pin);
    31ea:	a7 e3       	ldi	r26, 0x37	; 55
    31ec:	b0 e0       	ldi	r27, 0x00	; 0
    31ee:	e7 e3       	ldi	r30, 0x37	; 55
    31f0:	f0 e0       	ldi	r31, 0x00	; 0
    31f2:	80 81       	ld	r24, Z
    31f4:	48 2f       	mov	r20, r24
    31f6:	8a 81       	ldd	r24, Y+2	; 0x02
    31f8:	28 2f       	mov	r18, r24
    31fa:	30 e0       	ldi	r19, 0x00	; 0
    31fc:	81 e0       	ldi	r24, 0x01	; 1
    31fe:	90 e0       	ldi	r25, 0x00	; 0
    3200:	02 2e       	mov	r0, r18
    3202:	02 c0       	rjmp	.+4      	; 0x3208 <Dio_ConfigChannel+0xfe>
    3204:	88 0f       	add	r24, r24
    3206:	99 1f       	adc	r25, r25
    3208:	0a 94       	dec	r0
    320a:	e2 f7       	brpl	.-8      	; 0x3204 <Dio_ConfigChannel+0xfa>
    320c:	84 2b       	or	r24, r20
    320e:	8c 93       	st	X, r24
    3210:	57 c0       	rjmp	.+174    	; 0x32c0 <Dio_ConfigChannel+0x1b6>
		}
		break;

	case DIO_PORTC:
		if(direction == INPUT)
    3212:	8b 81       	ldd	r24, Y+3	; 0x03
    3214:	88 23       	and	r24, r24
    3216:	a9 f4       	brne	.+42     	; 0x3242 <Dio_ConfigChannel+0x138>
		{
			CLR_BIT(DIO_DDRC_REG,pin);
    3218:	a4 e3       	ldi	r26, 0x34	; 52
    321a:	b0 e0       	ldi	r27, 0x00	; 0
    321c:	e4 e3       	ldi	r30, 0x34	; 52
    321e:	f0 e0       	ldi	r31, 0x00	; 0
    3220:	80 81       	ld	r24, Z
    3222:	48 2f       	mov	r20, r24
    3224:	8a 81       	ldd	r24, Y+2	; 0x02
    3226:	28 2f       	mov	r18, r24
    3228:	30 e0       	ldi	r19, 0x00	; 0
    322a:	81 e0       	ldi	r24, 0x01	; 1
    322c:	90 e0       	ldi	r25, 0x00	; 0
    322e:	02 2e       	mov	r0, r18
    3230:	02 c0       	rjmp	.+4      	; 0x3236 <Dio_ConfigChannel+0x12c>
    3232:	88 0f       	add	r24, r24
    3234:	99 1f       	adc	r25, r25
    3236:	0a 94       	dec	r0
    3238:	e2 f7       	brpl	.-8      	; 0x3232 <Dio_ConfigChannel+0x128>
    323a:	80 95       	com	r24
    323c:	84 23       	and	r24, r20
    323e:	8c 93       	st	X, r24
    3240:	3f c0       	rjmp	.+126    	; 0x32c0 <Dio_ConfigChannel+0x1b6>
		}
		else
		{
			SET_BIT(DIO_DDRC_REG,pin);
    3242:	a4 e3       	ldi	r26, 0x34	; 52
    3244:	b0 e0       	ldi	r27, 0x00	; 0
    3246:	e4 e3       	ldi	r30, 0x34	; 52
    3248:	f0 e0       	ldi	r31, 0x00	; 0
    324a:	80 81       	ld	r24, Z
    324c:	48 2f       	mov	r20, r24
    324e:	8a 81       	ldd	r24, Y+2	; 0x02
    3250:	28 2f       	mov	r18, r24
    3252:	30 e0       	ldi	r19, 0x00	; 0
    3254:	81 e0       	ldi	r24, 0x01	; 1
    3256:	90 e0       	ldi	r25, 0x00	; 0
    3258:	02 2e       	mov	r0, r18
    325a:	02 c0       	rjmp	.+4      	; 0x3260 <Dio_ConfigChannel+0x156>
    325c:	88 0f       	add	r24, r24
    325e:	99 1f       	adc	r25, r25
    3260:	0a 94       	dec	r0
    3262:	e2 f7       	brpl	.-8      	; 0x325c <Dio_ConfigChannel+0x152>
    3264:	84 2b       	or	r24, r20
    3266:	8c 93       	st	X, r24
    3268:	2b c0       	rjmp	.+86     	; 0x32c0 <Dio_ConfigChannel+0x1b6>
		}
		break;

	case DIO_PORTD:
		if(direction == INPUT)
    326a:	8b 81       	ldd	r24, Y+3	; 0x03
    326c:	88 23       	and	r24, r24
    326e:	a9 f4       	brne	.+42     	; 0x329a <Dio_ConfigChannel+0x190>
		{
			CLR_BIT(DIO_DDRD_REG,pin);
    3270:	a1 e3       	ldi	r26, 0x31	; 49
    3272:	b0 e0       	ldi	r27, 0x00	; 0
    3274:	e1 e3       	ldi	r30, 0x31	; 49
    3276:	f0 e0       	ldi	r31, 0x00	; 0
    3278:	80 81       	ld	r24, Z
    327a:	48 2f       	mov	r20, r24
    327c:	8a 81       	ldd	r24, Y+2	; 0x02
    327e:	28 2f       	mov	r18, r24
    3280:	30 e0       	ldi	r19, 0x00	; 0
    3282:	81 e0       	ldi	r24, 0x01	; 1
    3284:	90 e0       	ldi	r25, 0x00	; 0
    3286:	02 2e       	mov	r0, r18
    3288:	02 c0       	rjmp	.+4      	; 0x328e <Dio_ConfigChannel+0x184>
    328a:	88 0f       	add	r24, r24
    328c:	99 1f       	adc	r25, r25
    328e:	0a 94       	dec	r0
    3290:	e2 f7       	brpl	.-8      	; 0x328a <Dio_ConfigChannel+0x180>
    3292:	80 95       	com	r24
    3294:	84 23       	and	r24, r20
    3296:	8c 93       	st	X, r24
    3298:	13 c0       	rjmp	.+38     	; 0x32c0 <Dio_ConfigChannel+0x1b6>
		}
		else
		{
			SET_BIT(DIO_DDRD_REG,pin);
    329a:	a1 e3       	ldi	r26, 0x31	; 49
    329c:	b0 e0       	ldi	r27, 0x00	; 0
    329e:	e1 e3       	ldi	r30, 0x31	; 49
    32a0:	f0 e0       	ldi	r31, 0x00	; 0
    32a2:	80 81       	ld	r24, Z
    32a4:	48 2f       	mov	r20, r24
    32a6:	8a 81       	ldd	r24, Y+2	; 0x02
    32a8:	28 2f       	mov	r18, r24
    32aa:	30 e0       	ldi	r19, 0x00	; 0
    32ac:	81 e0       	ldi	r24, 0x01	; 1
    32ae:	90 e0       	ldi	r25, 0x00	; 0
    32b0:	02 2e       	mov	r0, r18
    32b2:	02 c0       	rjmp	.+4      	; 0x32b8 <Dio_ConfigChannel+0x1ae>
    32b4:	88 0f       	add	r24, r24
    32b6:	99 1f       	adc	r25, r25
    32b8:	0a 94       	dec	r0
    32ba:	e2 f7       	brpl	.-8      	; 0x32b4 <Dio_ConfigChannel+0x1aa>
    32bc:	84 2b       	or	r24, r20
    32be:	8c 93       	st	X, r24
		}
		break;
	}

}
    32c0:	0f 90       	pop	r0
    32c2:	0f 90       	pop	r0
    32c4:	0f 90       	pop	r0
    32c6:	0f 90       	pop	r0
    32c8:	0f 90       	pop	r0
    32ca:	cf 91       	pop	r28
    32cc:	df 91       	pop	r29
    32ce:	08 95       	ret

000032d0 <Dio_WriteChannel>:
void Dio_WriteChannel(port_type port,pin_type pin,level_type level)
{
    32d0:	df 93       	push	r29
    32d2:	cf 93       	push	r28
    32d4:	00 d0       	rcall	.+0      	; 0x32d6 <Dio_WriteChannel+0x6>
    32d6:	00 d0       	rcall	.+0      	; 0x32d8 <Dio_WriteChannel+0x8>
    32d8:	0f 92       	push	r0
    32da:	cd b7       	in	r28, 0x3d	; 61
    32dc:	de b7       	in	r29, 0x3e	; 62
    32de:	89 83       	std	Y+1, r24	; 0x01
    32e0:	6a 83       	std	Y+2, r22	; 0x02
    32e2:	4b 83       	std	Y+3, r20	; 0x03
	switch (port)
    32e4:	89 81       	ldd	r24, Y+1	; 0x01
    32e6:	28 2f       	mov	r18, r24
    32e8:	30 e0       	ldi	r19, 0x00	; 0
    32ea:	3d 83       	std	Y+5, r19	; 0x05
    32ec:	2c 83       	std	Y+4, r18	; 0x04
    32ee:	8c 81       	ldd	r24, Y+4	; 0x04
    32f0:	9d 81       	ldd	r25, Y+5	; 0x05
    32f2:	81 30       	cpi	r24, 0x01	; 1
    32f4:	91 05       	cpc	r25, r1
    32f6:	09 f4       	brne	.+2      	; 0x32fa <Dio_WriteChannel+0x2a>
    32f8:	43 c0       	rjmp	.+134    	; 0x3380 <Dio_WriteChannel+0xb0>
    32fa:	2c 81       	ldd	r18, Y+4	; 0x04
    32fc:	3d 81       	ldd	r19, Y+5	; 0x05
    32fe:	22 30       	cpi	r18, 0x02	; 2
    3300:	31 05       	cpc	r19, r1
    3302:	2c f4       	brge	.+10     	; 0x330e <Dio_WriteChannel+0x3e>
    3304:	8c 81       	ldd	r24, Y+4	; 0x04
    3306:	9d 81       	ldd	r25, Y+5	; 0x05
    3308:	00 97       	sbiw	r24, 0x00	; 0
    330a:	71 f0       	breq	.+28     	; 0x3328 <Dio_WriteChannel+0x58>
    330c:	bc c0       	rjmp	.+376    	; 0x3486 <Dio_WriteChannel+0x1b6>
    330e:	2c 81       	ldd	r18, Y+4	; 0x04
    3310:	3d 81       	ldd	r19, Y+5	; 0x05
    3312:	22 30       	cpi	r18, 0x02	; 2
    3314:	31 05       	cpc	r19, r1
    3316:	09 f4       	brne	.+2      	; 0x331a <Dio_WriteChannel+0x4a>
    3318:	5f c0       	rjmp	.+190    	; 0x33d8 <Dio_WriteChannel+0x108>
    331a:	8c 81       	ldd	r24, Y+4	; 0x04
    331c:	9d 81       	ldd	r25, Y+5	; 0x05
    331e:	83 30       	cpi	r24, 0x03	; 3
    3320:	91 05       	cpc	r25, r1
    3322:	09 f4       	brne	.+2      	; 0x3326 <Dio_WriteChannel+0x56>
    3324:	85 c0       	rjmp	.+266    	; 0x3430 <Dio_WriteChannel+0x160>
    3326:	af c0       	rjmp	.+350    	; 0x3486 <Dio_WriteChannel+0x1b6>
	{
	case DIO_PORTA:
		if(level == STD_HIGH)
    3328:	8b 81       	ldd	r24, Y+3	; 0x03
    332a:	81 30       	cpi	r24, 0x01	; 1
    332c:	a1 f4       	brne	.+40     	; 0x3356 <Dio_WriteChannel+0x86>
		{
			SET_BIT(DIO_PORTA_REG,pin);
    332e:	ab e3       	ldi	r26, 0x3B	; 59
    3330:	b0 e0       	ldi	r27, 0x00	; 0
    3332:	eb e3       	ldi	r30, 0x3B	; 59
    3334:	f0 e0       	ldi	r31, 0x00	; 0
    3336:	80 81       	ld	r24, Z
    3338:	48 2f       	mov	r20, r24
    333a:	8a 81       	ldd	r24, Y+2	; 0x02
    333c:	28 2f       	mov	r18, r24
    333e:	30 e0       	ldi	r19, 0x00	; 0
    3340:	81 e0       	ldi	r24, 0x01	; 1
    3342:	90 e0       	ldi	r25, 0x00	; 0
    3344:	02 2e       	mov	r0, r18
    3346:	02 c0       	rjmp	.+4      	; 0x334c <Dio_WriteChannel+0x7c>
    3348:	88 0f       	add	r24, r24
    334a:	99 1f       	adc	r25, r25
    334c:	0a 94       	dec	r0
    334e:	e2 f7       	brpl	.-8      	; 0x3348 <Dio_WriteChannel+0x78>
    3350:	84 2b       	or	r24, r20
    3352:	8c 93       	st	X, r24
    3354:	98 c0       	rjmp	.+304    	; 0x3486 <Dio_WriteChannel+0x1b6>
		}
		else
		{
			CLR_BIT(DIO_PORTA_REG,pin);
    3356:	ab e3       	ldi	r26, 0x3B	; 59
    3358:	b0 e0       	ldi	r27, 0x00	; 0
    335a:	eb e3       	ldi	r30, 0x3B	; 59
    335c:	f0 e0       	ldi	r31, 0x00	; 0
    335e:	80 81       	ld	r24, Z
    3360:	48 2f       	mov	r20, r24
    3362:	8a 81       	ldd	r24, Y+2	; 0x02
    3364:	28 2f       	mov	r18, r24
    3366:	30 e0       	ldi	r19, 0x00	; 0
    3368:	81 e0       	ldi	r24, 0x01	; 1
    336a:	90 e0       	ldi	r25, 0x00	; 0
    336c:	02 2e       	mov	r0, r18
    336e:	02 c0       	rjmp	.+4      	; 0x3374 <Dio_WriteChannel+0xa4>
    3370:	88 0f       	add	r24, r24
    3372:	99 1f       	adc	r25, r25
    3374:	0a 94       	dec	r0
    3376:	e2 f7       	brpl	.-8      	; 0x3370 <Dio_WriteChannel+0xa0>
    3378:	80 95       	com	r24
    337a:	84 23       	and	r24, r20
    337c:	8c 93       	st	X, r24
    337e:	83 c0       	rjmp	.+262    	; 0x3486 <Dio_WriteChannel+0x1b6>
		}
		break;

	case DIO_PORTB:
		if(level == STD_HIGH)
    3380:	8b 81       	ldd	r24, Y+3	; 0x03
    3382:	81 30       	cpi	r24, 0x01	; 1
    3384:	a1 f4       	brne	.+40     	; 0x33ae <Dio_WriteChannel+0xde>
		{
			SET_BIT(DIO_PORTB_REG,pin);
    3386:	a8 e3       	ldi	r26, 0x38	; 56
    3388:	b0 e0       	ldi	r27, 0x00	; 0
    338a:	e8 e3       	ldi	r30, 0x38	; 56
    338c:	f0 e0       	ldi	r31, 0x00	; 0
    338e:	80 81       	ld	r24, Z
    3390:	48 2f       	mov	r20, r24
    3392:	8a 81       	ldd	r24, Y+2	; 0x02
    3394:	28 2f       	mov	r18, r24
    3396:	30 e0       	ldi	r19, 0x00	; 0
    3398:	81 e0       	ldi	r24, 0x01	; 1
    339a:	90 e0       	ldi	r25, 0x00	; 0
    339c:	02 2e       	mov	r0, r18
    339e:	02 c0       	rjmp	.+4      	; 0x33a4 <Dio_WriteChannel+0xd4>
    33a0:	88 0f       	add	r24, r24
    33a2:	99 1f       	adc	r25, r25
    33a4:	0a 94       	dec	r0
    33a6:	e2 f7       	brpl	.-8      	; 0x33a0 <Dio_WriteChannel+0xd0>
    33a8:	84 2b       	or	r24, r20
    33aa:	8c 93       	st	X, r24
    33ac:	6c c0       	rjmp	.+216    	; 0x3486 <Dio_WriteChannel+0x1b6>
		}
		else
		{
			CLR_BIT(DIO_PORTB_REG,pin);
    33ae:	a8 e3       	ldi	r26, 0x38	; 56
    33b0:	b0 e0       	ldi	r27, 0x00	; 0
    33b2:	e8 e3       	ldi	r30, 0x38	; 56
    33b4:	f0 e0       	ldi	r31, 0x00	; 0
    33b6:	80 81       	ld	r24, Z
    33b8:	48 2f       	mov	r20, r24
    33ba:	8a 81       	ldd	r24, Y+2	; 0x02
    33bc:	28 2f       	mov	r18, r24
    33be:	30 e0       	ldi	r19, 0x00	; 0
    33c0:	81 e0       	ldi	r24, 0x01	; 1
    33c2:	90 e0       	ldi	r25, 0x00	; 0
    33c4:	02 2e       	mov	r0, r18
    33c6:	02 c0       	rjmp	.+4      	; 0x33cc <Dio_WriteChannel+0xfc>
    33c8:	88 0f       	add	r24, r24
    33ca:	99 1f       	adc	r25, r25
    33cc:	0a 94       	dec	r0
    33ce:	e2 f7       	brpl	.-8      	; 0x33c8 <Dio_WriteChannel+0xf8>
    33d0:	80 95       	com	r24
    33d2:	84 23       	and	r24, r20
    33d4:	8c 93       	st	X, r24
    33d6:	57 c0       	rjmp	.+174    	; 0x3486 <Dio_WriteChannel+0x1b6>
		}
		break;

	case DIO_PORTC:
		if(level == STD_HIGH)
    33d8:	8b 81       	ldd	r24, Y+3	; 0x03
    33da:	81 30       	cpi	r24, 0x01	; 1
    33dc:	a1 f4       	brne	.+40     	; 0x3406 <Dio_WriteChannel+0x136>
		{
			SET_BIT(DIO_PORTC_REG,pin);
    33de:	a5 e3       	ldi	r26, 0x35	; 53
    33e0:	b0 e0       	ldi	r27, 0x00	; 0
    33e2:	e5 e3       	ldi	r30, 0x35	; 53
    33e4:	f0 e0       	ldi	r31, 0x00	; 0
    33e6:	80 81       	ld	r24, Z
    33e8:	48 2f       	mov	r20, r24
    33ea:	8a 81       	ldd	r24, Y+2	; 0x02
    33ec:	28 2f       	mov	r18, r24
    33ee:	30 e0       	ldi	r19, 0x00	; 0
    33f0:	81 e0       	ldi	r24, 0x01	; 1
    33f2:	90 e0       	ldi	r25, 0x00	; 0
    33f4:	02 2e       	mov	r0, r18
    33f6:	02 c0       	rjmp	.+4      	; 0x33fc <Dio_WriteChannel+0x12c>
    33f8:	88 0f       	add	r24, r24
    33fa:	99 1f       	adc	r25, r25
    33fc:	0a 94       	dec	r0
    33fe:	e2 f7       	brpl	.-8      	; 0x33f8 <Dio_WriteChannel+0x128>
    3400:	84 2b       	or	r24, r20
    3402:	8c 93       	st	X, r24
    3404:	40 c0       	rjmp	.+128    	; 0x3486 <Dio_WriteChannel+0x1b6>
		}
		else
		{
			CLR_BIT(DIO_PORTC_REG,pin);
    3406:	a5 e3       	ldi	r26, 0x35	; 53
    3408:	b0 e0       	ldi	r27, 0x00	; 0
    340a:	e5 e3       	ldi	r30, 0x35	; 53
    340c:	f0 e0       	ldi	r31, 0x00	; 0
    340e:	80 81       	ld	r24, Z
    3410:	48 2f       	mov	r20, r24
    3412:	8a 81       	ldd	r24, Y+2	; 0x02
    3414:	28 2f       	mov	r18, r24
    3416:	30 e0       	ldi	r19, 0x00	; 0
    3418:	81 e0       	ldi	r24, 0x01	; 1
    341a:	90 e0       	ldi	r25, 0x00	; 0
    341c:	02 2e       	mov	r0, r18
    341e:	02 c0       	rjmp	.+4      	; 0x3424 <Dio_WriteChannel+0x154>
    3420:	88 0f       	add	r24, r24
    3422:	99 1f       	adc	r25, r25
    3424:	0a 94       	dec	r0
    3426:	e2 f7       	brpl	.-8      	; 0x3420 <Dio_WriteChannel+0x150>
    3428:	80 95       	com	r24
    342a:	84 23       	and	r24, r20
    342c:	8c 93       	st	X, r24
    342e:	2b c0       	rjmp	.+86     	; 0x3486 <Dio_WriteChannel+0x1b6>
		}
		break;

	case DIO_PORTD:
		if(level == STD_HIGH)
    3430:	8b 81       	ldd	r24, Y+3	; 0x03
    3432:	81 30       	cpi	r24, 0x01	; 1
    3434:	a1 f4       	brne	.+40     	; 0x345e <Dio_WriteChannel+0x18e>
		{
			SET_BIT(DIO_PORTD_REG,pin);
    3436:	a2 e3       	ldi	r26, 0x32	; 50
    3438:	b0 e0       	ldi	r27, 0x00	; 0
    343a:	e2 e3       	ldi	r30, 0x32	; 50
    343c:	f0 e0       	ldi	r31, 0x00	; 0
    343e:	80 81       	ld	r24, Z
    3440:	48 2f       	mov	r20, r24
    3442:	8a 81       	ldd	r24, Y+2	; 0x02
    3444:	28 2f       	mov	r18, r24
    3446:	30 e0       	ldi	r19, 0x00	; 0
    3448:	81 e0       	ldi	r24, 0x01	; 1
    344a:	90 e0       	ldi	r25, 0x00	; 0
    344c:	02 2e       	mov	r0, r18
    344e:	02 c0       	rjmp	.+4      	; 0x3454 <Dio_WriteChannel+0x184>
    3450:	88 0f       	add	r24, r24
    3452:	99 1f       	adc	r25, r25
    3454:	0a 94       	dec	r0
    3456:	e2 f7       	brpl	.-8      	; 0x3450 <Dio_WriteChannel+0x180>
    3458:	84 2b       	or	r24, r20
    345a:	8c 93       	st	X, r24
    345c:	14 c0       	rjmp	.+40     	; 0x3486 <Dio_WriteChannel+0x1b6>
		}
		else
		{
			CLR_BIT(DIO_PORTD_REG,pin);
    345e:	a2 e3       	ldi	r26, 0x32	; 50
    3460:	b0 e0       	ldi	r27, 0x00	; 0
    3462:	e2 e3       	ldi	r30, 0x32	; 50
    3464:	f0 e0       	ldi	r31, 0x00	; 0
    3466:	80 81       	ld	r24, Z
    3468:	48 2f       	mov	r20, r24
    346a:	8a 81       	ldd	r24, Y+2	; 0x02
    346c:	28 2f       	mov	r18, r24
    346e:	30 e0       	ldi	r19, 0x00	; 0
    3470:	81 e0       	ldi	r24, 0x01	; 1
    3472:	90 e0       	ldi	r25, 0x00	; 0
    3474:	02 2e       	mov	r0, r18
    3476:	02 c0       	rjmp	.+4      	; 0x347c <Dio_WriteChannel+0x1ac>
    3478:	88 0f       	add	r24, r24
    347a:	99 1f       	adc	r25, r25
    347c:	0a 94       	dec	r0
    347e:	e2 f7       	brpl	.-8      	; 0x3478 <Dio_WriteChannel+0x1a8>
    3480:	80 95       	com	r24
    3482:	84 23       	and	r24, r20
    3484:	8c 93       	st	X, r24
		}
		break;
	}
}
    3486:	0f 90       	pop	r0
    3488:	0f 90       	pop	r0
    348a:	0f 90       	pop	r0
    348c:	0f 90       	pop	r0
    348e:	0f 90       	pop	r0
    3490:	cf 91       	pop	r28
    3492:	df 91       	pop	r29
    3494:	08 95       	ret

00003496 <Dio_WriteGroup>:
void Dio_WriteGroup(port_type port, u8 mask, u8 data)
{
    3496:	df 93       	push	r29
    3498:	cf 93       	push	r28
    349a:	00 d0       	rcall	.+0      	; 0x349c <Dio_WriteGroup+0x6>
    349c:	00 d0       	rcall	.+0      	; 0x349e <Dio_WriteGroup+0x8>
    349e:	0f 92       	push	r0
    34a0:	cd b7       	in	r28, 0x3d	; 61
    34a2:	de b7       	in	r29, 0x3e	; 62
    34a4:	89 83       	std	Y+1, r24	; 0x01
    34a6:	6a 83       	std	Y+2, r22	; 0x02
    34a8:	4b 83       	std	Y+3, r20	; 0x03
	switch (port)
    34aa:	89 81       	ldd	r24, Y+1	; 0x01
    34ac:	28 2f       	mov	r18, r24
    34ae:	30 e0       	ldi	r19, 0x00	; 0
    34b0:	3d 83       	std	Y+5, r19	; 0x05
    34b2:	2c 83       	std	Y+4, r18	; 0x04
    34b4:	8c 81       	ldd	r24, Y+4	; 0x04
    34b6:	9d 81       	ldd	r25, Y+5	; 0x05
    34b8:	81 30       	cpi	r24, 0x01	; 1
    34ba:	91 05       	cpc	r25, r1
    34bc:	59 f1       	breq	.+86     	; 0x3514 <Dio_WriteGroup+0x7e>
    34be:	2c 81       	ldd	r18, Y+4	; 0x04
    34c0:	3d 81       	ldd	r19, Y+5	; 0x05
    34c2:	22 30       	cpi	r18, 0x02	; 2
    34c4:	31 05       	cpc	r19, r1
    34c6:	2c f4       	brge	.+10     	; 0x34d2 <Dio_WriteGroup+0x3c>
    34c8:	8c 81       	ldd	r24, Y+4	; 0x04
    34ca:	9d 81       	ldd	r25, Y+5	; 0x05
    34cc:	00 97       	sbiw	r24, 0x00	; 0
    34ce:	69 f0       	breq	.+26     	; 0x34ea <Dio_WriteGroup+0x54>
    34d0:	5f c0       	rjmp	.+190    	; 0x3590 <Dio_WriteGroup+0xfa>
    34d2:	2c 81       	ldd	r18, Y+4	; 0x04
    34d4:	3d 81       	ldd	r19, Y+5	; 0x05
    34d6:	22 30       	cpi	r18, 0x02	; 2
    34d8:	31 05       	cpc	r19, r1
    34da:	89 f1       	breq	.+98     	; 0x353e <Dio_WriteGroup+0xa8>
    34dc:	8c 81       	ldd	r24, Y+4	; 0x04
    34de:	9d 81       	ldd	r25, Y+5	; 0x05
    34e0:	83 30       	cpi	r24, 0x03	; 3
    34e2:	91 05       	cpc	r25, r1
    34e4:	09 f4       	brne	.+2      	; 0x34e8 <Dio_WriteGroup+0x52>
    34e6:	40 c0       	rjmp	.+128    	; 0x3568 <Dio_WriteGroup+0xd2>
    34e8:	53 c0       	rjmp	.+166    	; 0x3590 <Dio_WriteGroup+0xfa>
	{
	case DIO_PORTA:

		DIO_PORTA_REG &= ~mask;
    34ea:	ab e3       	ldi	r26, 0x3B	; 59
    34ec:	b0 e0       	ldi	r27, 0x00	; 0
    34ee:	eb e3       	ldi	r30, 0x3B	; 59
    34f0:	f0 e0       	ldi	r31, 0x00	; 0
    34f2:	80 81       	ld	r24, Z
    34f4:	98 2f       	mov	r25, r24
    34f6:	8a 81       	ldd	r24, Y+2	; 0x02
    34f8:	80 95       	com	r24
    34fa:	89 23       	and	r24, r25
    34fc:	8c 93       	st	X, r24
		DIO_PORTA_REG |= (data & mask);
    34fe:	ab e3       	ldi	r26, 0x3B	; 59
    3500:	b0 e0       	ldi	r27, 0x00	; 0
    3502:	eb e3       	ldi	r30, 0x3B	; 59
    3504:	f0 e0       	ldi	r31, 0x00	; 0
    3506:	20 81       	ld	r18, Z
    3508:	9b 81       	ldd	r25, Y+3	; 0x03
    350a:	8a 81       	ldd	r24, Y+2	; 0x02
    350c:	89 23       	and	r24, r25
    350e:	82 2b       	or	r24, r18
    3510:	8c 93       	st	X, r24
    3512:	3e c0       	rjmp	.+124    	; 0x3590 <Dio_WriteGroup+0xfa>
		break;

	case DIO_PORTB:
		DIO_PORTB_REG &= ~mask;
    3514:	a8 e3       	ldi	r26, 0x38	; 56
    3516:	b0 e0       	ldi	r27, 0x00	; 0
    3518:	e8 e3       	ldi	r30, 0x38	; 56
    351a:	f0 e0       	ldi	r31, 0x00	; 0
    351c:	80 81       	ld	r24, Z
    351e:	98 2f       	mov	r25, r24
    3520:	8a 81       	ldd	r24, Y+2	; 0x02
    3522:	80 95       	com	r24
    3524:	89 23       	and	r24, r25
    3526:	8c 93       	st	X, r24
		DIO_PORTB_REG |= (data & mask);
    3528:	a8 e3       	ldi	r26, 0x38	; 56
    352a:	b0 e0       	ldi	r27, 0x00	; 0
    352c:	e8 e3       	ldi	r30, 0x38	; 56
    352e:	f0 e0       	ldi	r31, 0x00	; 0
    3530:	20 81       	ld	r18, Z
    3532:	9b 81       	ldd	r25, Y+3	; 0x03
    3534:	8a 81       	ldd	r24, Y+2	; 0x02
    3536:	89 23       	and	r24, r25
    3538:	82 2b       	or	r24, r18
    353a:	8c 93       	st	X, r24
    353c:	29 c0       	rjmp	.+82     	; 0x3590 <Dio_WriteGroup+0xfa>
		break;

	case DIO_PORTC:
		DIO_PORTC_REG &= ~mask;
    353e:	a5 e3       	ldi	r26, 0x35	; 53
    3540:	b0 e0       	ldi	r27, 0x00	; 0
    3542:	e5 e3       	ldi	r30, 0x35	; 53
    3544:	f0 e0       	ldi	r31, 0x00	; 0
    3546:	80 81       	ld	r24, Z
    3548:	98 2f       	mov	r25, r24
    354a:	8a 81       	ldd	r24, Y+2	; 0x02
    354c:	80 95       	com	r24
    354e:	89 23       	and	r24, r25
    3550:	8c 93       	st	X, r24
		DIO_PORTC_REG |= (data & mask);
    3552:	a5 e3       	ldi	r26, 0x35	; 53
    3554:	b0 e0       	ldi	r27, 0x00	; 0
    3556:	e5 e3       	ldi	r30, 0x35	; 53
    3558:	f0 e0       	ldi	r31, 0x00	; 0
    355a:	20 81       	ld	r18, Z
    355c:	9b 81       	ldd	r25, Y+3	; 0x03
    355e:	8a 81       	ldd	r24, Y+2	; 0x02
    3560:	89 23       	and	r24, r25
    3562:	82 2b       	or	r24, r18
    3564:	8c 93       	st	X, r24
    3566:	14 c0       	rjmp	.+40     	; 0x3590 <Dio_WriteGroup+0xfa>
		break;

	case DIO_PORTD:
		DIO_PORTD_REG &= ~mask;
    3568:	a2 e3       	ldi	r26, 0x32	; 50
    356a:	b0 e0       	ldi	r27, 0x00	; 0
    356c:	e2 e3       	ldi	r30, 0x32	; 50
    356e:	f0 e0       	ldi	r31, 0x00	; 0
    3570:	80 81       	ld	r24, Z
    3572:	98 2f       	mov	r25, r24
    3574:	8a 81       	ldd	r24, Y+2	; 0x02
    3576:	80 95       	com	r24
    3578:	89 23       	and	r24, r25
    357a:	8c 93       	st	X, r24
		DIO_PORTD_REG |= (data & mask);
    357c:	a2 e3       	ldi	r26, 0x32	; 50
    357e:	b0 e0       	ldi	r27, 0x00	; 0
    3580:	e2 e3       	ldi	r30, 0x32	; 50
    3582:	f0 e0       	ldi	r31, 0x00	; 0
    3584:	20 81       	ld	r18, Z
    3586:	9b 81       	ldd	r25, Y+3	; 0x03
    3588:	8a 81       	ldd	r24, Y+2	; 0x02
    358a:	89 23       	and	r24, r25
    358c:	82 2b       	or	r24, r18
    358e:	8c 93       	st	X, r24
		break;
	}
}
    3590:	0f 90       	pop	r0
    3592:	0f 90       	pop	r0
    3594:	0f 90       	pop	r0
    3596:	0f 90       	pop	r0
    3598:	0f 90       	pop	r0
    359a:	cf 91       	pop	r28
    359c:	df 91       	pop	r29
    359e:	08 95       	ret

000035a0 <Dio_ToggleChannel>:
void Dio_ToggleChannel(port_type port, pin_type pin)
{
    35a0:	df 93       	push	r29
    35a2:	cf 93       	push	r28
    35a4:	00 d0       	rcall	.+0      	; 0x35a6 <Dio_ToggleChannel+0x6>
    35a6:	00 d0       	rcall	.+0      	; 0x35a8 <Dio_ToggleChannel+0x8>
    35a8:	cd b7       	in	r28, 0x3d	; 61
    35aa:	de b7       	in	r29, 0x3e	; 62
    35ac:	89 83       	std	Y+1, r24	; 0x01
    35ae:	6a 83       	std	Y+2, r22	; 0x02
	switch(port)
    35b0:	89 81       	ldd	r24, Y+1	; 0x01
    35b2:	28 2f       	mov	r18, r24
    35b4:	30 e0       	ldi	r19, 0x00	; 0
    35b6:	3c 83       	std	Y+4, r19	; 0x04
    35b8:	2b 83       	std	Y+3, r18	; 0x03
    35ba:	8b 81       	ldd	r24, Y+3	; 0x03
    35bc:	9c 81       	ldd	r25, Y+4	; 0x04
    35be:	81 30       	cpi	r24, 0x01	; 1
    35c0:	91 05       	cpc	r25, r1
    35c2:	49 f1       	breq	.+82     	; 0x3616 <Dio_ToggleChannel+0x76>
    35c4:	2b 81       	ldd	r18, Y+3	; 0x03
    35c6:	3c 81       	ldd	r19, Y+4	; 0x04
    35c8:	22 30       	cpi	r18, 0x02	; 2
    35ca:	31 05       	cpc	r19, r1
    35cc:	2c f4       	brge	.+10     	; 0x35d8 <Dio_ToggleChannel+0x38>
    35ce:	8b 81       	ldd	r24, Y+3	; 0x03
    35d0:	9c 81       	ldd	r25, Y+4	; 0x04
    35d2:	00 97       	sbiw	r24, 0x00	; 0
    35d4:	61 f0       	breq	.+24     	; 0x35ee <Dio_ToggleChannel+0x4e>
    35d6:	5a c0       	rjmp	.+180    	; 0x368c <Dio_ToggleChannel+0xec>
    35d8:	2b 81       	ldd	r18, Y+3	; 0x03
    35da:	3c 81       	ldd	r19, Y+4	; 0x04
    35dc:	22 30       	cpi	r18, 0x02	; 2
    35de:	31 05       	cpc	r19, r1
    35e0:	71 f1       	breq	.+92     	; 0x363e <Dio_ToggleChannel+0x9e>
    35e2:	8b 81       	ldd	r24, Y+3	; 0x03
    35e4:	9c 81       	ldd	r25, Y+4	; 0x04
    35e6:	83 30       	cpi	r24, 0x03	; 3
    35e8:	91 05       	cpc	r25, r1
    35ea:	e9 f1       	breq	.+122    	; 0x3666 <Dio_ToggleChannel+0xc6>
    35ec:	4f c0       	rjmp	.+158    	; 0x368c <Dio_ToggleChannel+0xec>
	{
	case DIO_PORTA:
		TOGGLE_BIT(DIO_PORTA_REG,pin);
    35ee:	ab e3       	ldi	r26, 0x3B	; 59
    35f0:	b0 e0       	ldi	r27, 0x00	; 0
    35f2:	eb e3       	ldi	r30, 0x3B	; 59
    35f4:	f0 e0       	ldi	r31, 0x00	; 0
    35f6:	80 81       	ld	r24, Z
    35f8:	48 2f       	mov	r20, r24
    35fa:	8a 81       	ldd	r24, Y+2	; 0x02
    35fc:	28 2f       	mov	r18, r24
    35fe:	30 e0       	ldi	r19, 0x00	; 0
    3600:	81 e0       	ldi	r24, 0x01	; 1
    3602:	90 e0       	ldi	r25, 0x00	; 0
    3604:	02 2e       	mov	r0, r18
    3606:	02 c0       	rjmp	.+4      	; 0x360c <Dio_ToggleChannel+0x6c>
    3608:	88 0f       	add	r24, r24
    360a:	99 1f       	adc	r25, r25
    360c:	0a 94       	dec	r0
    360e:	e2 f7       	brpl	.-8      	; 0x3608 <Dio_ToggleChannel+0x68>
    3610:	84 27       	eor	r24, r20
    3612:	8c 93       	st	X, r24
    3614:	3b c0       	rjmp	.+118    	; 0x368c <Dio_ToggleChannel+0xec>
		break;
	case DIO_PORTB:
		TOGGLE_BIT(DIO_PORTB_REG,pin);
    3616:	a8 e3       	ldi	r26, 0x38	; 56
    3618:	b0 e0       	ldi	r27, 0x00	; 0
    361a:	e8 e3       	ldi	r30, 0x38	; 56
    361c:	f0 e0       	ldi	r31, 0x00	; 0
    361e:	80 81       	ld	r24, Z
    3620:	48 2f       	mov	r20, r24
    3622:	8a 81       	ldd	r24, Y+2	; 0x02
    3624:	28 2f       	mov	r18, r24
    3626:	30 e0       	ldi	r19, 0x00	; 0
    3628:	81 e0       	ldi	r24, 0x01	; 1
    362a:	90 e0       	ldi	r25, 0x00	; 0
    362c:	02 2e       	mov	r0, r18
    362e:	02 c0       	rjmp	.+4      	; 0x3634 <Dio_ToggleChannel+0x94>
    3630:	88 0f       	add	r24, r24
    3632:	99 1f       	adc	r25, r25
    3634:	0a 94       	dec	r0
    3636:	e2 f7       	brpl	.-8      	; 0x3630 <Dio_ToggleChannel+0x90>
    3638:	84 27       	eor	r24, r20
    363a:	8c 93       	st	X, r24
    363c:	27 c0       	rjmp	.+78     	; 0x368c <Dio_ToggleChannel+0xec>
		break;
	case DIO_PORTC:
		TOGGLE_BIT(DIO_PORTC_REG,pin);
    363e:	a5 e3       	ldi	r26, 0x35	; 53
    3640:	b0 e0       	ldi	r27, 0x00	; 0
    3642:	e5 e3       	ldi	r30, 0x35	; 53
    3644:	f0 e0       	ldi	r31, 0x00	; 0
    3646:	80 81       	ld	r24, Z
    3648:	48 2f       	mov	r20, r24
    364a:	8a 81       	ldd	r24, Y+2	; 0x02
    364c:	28 2f       	mov	r18, r24
    364e:	30 e0       	ldi	r19, 0x00	; 0
    3650:	81 e0       	ldi	r24, 0x01	; 1
    3652:	90 e0       	ldi	r25, 0x00	; 0
    3654:	02 2e       	mov	r0, r18
    3656:	02 c0       	rjmp	.+4      	; 0x365c <Dio_ToggleChannel+0xbc>
    3658:	88 0f       	add	r24, r24
    365a:	99 1f       	adc	r25, r25
    365c:	0a 94       	dec	r0
    365e:	e2 f7       	brpl	.-8      	; 0x3658 <Dio_ToggleChannel+0xb8>
    3660:	84 27       	eor	r24, r20
    3662:	8c 93       	st	X, r24
    3664:	13 c0       	rjmp	.+38     	; 0x368c <Dio_ToggleChannel+0xec>
		break;
	case DIO_PORTD:
		TOGGLE_BIT(DIO_PORTD_REG,pin);
    3666:	a2 e3       	ldi	r26, 0x32	; 50
    3668:	b0 e0       	ldi	r27, 0x00	; 0
    366a:	e2 e3       	ldi	r30, 0x32	; 50
    366c:	f0 e0       	ldi	r31, 0x00	; 0
    366e:	80 81       	ld	r24, Z
    3670:	48 2f       	mov	r20, r24
    3672:	8a 81       	ldd	r24, Y+2	; 0x02
    3674:	28 2f       	mov	r18, r24
    3676:	30 e0       	ldi	r19, 0x00	; 0
    3678:	81 e0       	ldi	r24, 0x01	; 1
    367a:	90 e0       	ldi	r25, 0x00	; 0
    367c:	02 2e       	mov	r0, r18
    367e:	02 c0       	rjmp	.+4      	; 0x3684 <Dio_ToggleChannel+0xe4>
    3680:	88 0f       	add	r24, r24
    3682:	99 1f       	adc	r25, r25
    3684:	0a 94       	dec	r0
    3686:	e2 f7       	brpl	.-8      	; 0x3680 <Dio_ToggleChannel+0xe0>
    3688:	84 27       	eor	r24, r20
    368a:	8c 93       	st	X, r24
		break;
	}
}
    368c:	0f 90       	pop	r0
    368e:	0f 90       	pop	r0
    3690:	0f 90       	pop	r0
    3692:	0f 90       	pop	r0
    3694:	cf 91       	pop	r28
    3696:	df 91       	pop	r29
    3698:	08 95       	ret

0000369a <Dio_ReadChannel>:
level_type Dio_ReadChannel(port_type port,pin_type pin)
{
    369a:	df 93       	push	r29
    369c:	cf 93       	push	r28
    369e:	00 d0       	rcall	.+0      	; 0x36a0 <Dio_ReadChannel+0x6>
    36a0:	00 d0       	rcall	.+0      	; 0x36a2 <Dio_ReadChannel+0x8>
    36a2:	0f 92       	push	r0
    36a4:	cd b7       	in	r28, 0x3d	; 61
    36a6:	de b7       	in	r29, 0x3e	; 62
    36a8:	8a 83       	std	Y+2, r24	; 0x02
    36aa:	6b 83       	std	Y+3, r22	; 0x03
	level_type res = STD_LOW;
    36ac:	19 82       	std	Y+1, r1	; 0x01
	switch (port)
    36ae:	8a 81       	ldd	r24, Y+2	; 0x02
    36b0:	28 2f       	mov	r18, r24
    36b2:	30 e0       	ldi	r19, 0x00	; 0
    36b4:	3d 83       	std	Y+5, r19	; 0x05
    36b6:	2c 83       	std	Y+4, r18	; 0x04
    36b8:	4c 81       	ldd	r20, Y+4	; 0x04
    36ba:	5d 81       	ldd	r21, Y+5	; 0x05
    36bc:	41 30       	cpi	r20, 0x01	; 1
    36be:	51 05       	cpc	r21, r1
    36c0:	79 f1       	breq	.+94     	; 0x3720 <Dio_ReadChannel+0x86>
    36c2:	8c 81       	ldd	r24, Y+4	; 0x04
    36c4:	9d 81       	ldd	r25, Y+5	; 0x05
    36c6:	82 30       	cpi	r24, 0x02	; 2
    36c8:	91 05       	cpc	r25, r1
    36ca:	34 f4       	brge	.+12     	; 0x36d8 <Dio_ReadChannel+0x3e>
    36cc:	2c 81       	ldd	r18, Y+4	; 0x04
    36ce:	3d 81       	ldd	r19, Y+5	; 0x05
    36d0:	21 15       	cp	r18, r1
    36d2:	31 05       	cpc	r19, r1
    36d4:	69 f0       	breq	.+26     	; 0x36f0 <Dio_ReadChannel+0x56>
    36d6:	6b c0       	rjmp	.+214    	; 0x37ae <Dio_ReadChannel+0x114>
    36d8:	4c 81       	ldd	r20, Y+4	; 0x04
    36da:	5d 81       	ldd	r21, Y+5	; 0x05
    36dc:	42 30       	cpi	r20, 0x02	; 2
    36de:	51 05       	cpc	r21, r1
    36e0:	b9 f1       	breq	.+110    	; 0x3750 <Dio_ReadChannel+0xb6>
    36e2:	8c 81       	ldd	r24, Y+4	; 0x04
    36e4:	9d 81       	ldd	r25, Y+5	; 0x05
    36e6:	83 30       	cpi	r24, 0x03	; 3
    36e8:	91 05       	cpc	r25, r1
    36ea:	09 f4       	brne	.+2      	; 0x36ee <Dio_ReadChannel+0x54>
    36ec:	49 c0       	rjmp	.+146    	; 0x3780 <Dio_ReadChannel+0xe6>
    36ee:	5f c0       	rjmp	.+190    	; 0x37ae <Dio_ReadChannel+0x114>
	{
	case DIO_PORTA:
		if (GET_BIT(DIO_PINA_REG,pin))
    36f0:	e9 e3       	ldi	r30, 0x39	; 57
    36f2:	f0 e0       	ldi	r31, 0x00	; 0
    36f4:	80 81       	ld	r24, Z
    36f6:	28 2f       	mov	r18, r24
    36f8:	30 e0       	ldi	r19, 0x00	; 0
    36fa:	8b 81       	ldd	r24, Y+3	; 0x03
    36fc:	88 2f       	mov	r24, r24
    36fe:	90 e0       	ldi	r25, 0x00	; 0
    3700:	a9 01       	movw	r20, r18
    3702:	02 c0       	rjmp	.+4      	; 0x3708 <Dio_ReadChannel+0x6e>
    3704:	55 95       	asr	r21
    3706:	47 95       	ror	r20
    3708:	8a 95       	dec	r24
    370a:	e2 f7       	brpl	.-8      	; 0x3704 <Dio_ReadChannel+0x6a>
    370c:	ca 01       	movw	r24, r20
    370e:	81 70       	andi	r24, 0x01	; 1
    3710:	90 70       	andi	r25, 0x00	; 0
    3712:	88 23       	and	r24, r24
    3714:	19 f0       	breq	.+6      	; 0x371c <Dio_ReadChannel+0x82>
			res = STD_HIGH;
    3716:	81 e0       	ldi	r24, 0x01	; 1
    3718:	89 83       	std	Y+1, r24	; 0x01
    371a:	49 c0       	rjmp	.+146    	; 0x37ae <Dio_ReadChannel+0x114>
		else
			res = STD_LOW;
    371c:	19 82       	std	Y+1, r1	; 0x01
    371e:	47 c0       	rjmp	.+142    	; 0x37ae <Dio_ReadChannel+0x114>
		break;
	case DIO_PORTB:
		if (GET_BIT(DIO_PINB_REG,pin))
    3720:	e6 e3       	ldi	r30, 0x36	; 54
    3722:	f0 e0       	ldi	r31, 0x00	; 0
    3724:	80 81       	ld	r24, Z
    3726:	28 2f       	mov	r18, r24
    3728:	30 e0       	ldi	r19, 0x00	; 0
    372a:	8b 81       	ldd	r24, Y+3	; 0x03
    372c:	88 2f       	mov	r24, r24
    372e:	90 e0       	ldi	r25, 0x00	; 0
    3730:	a9 01       	movw	r20, r18
    3732:	02 c0       	rjmp	.+4      	; 0x3738 <Dio_ReadChannel+0x9e>
    3734:	55 95       	asr	r21
    3736:	47 95       	ror	r20
    3738:	8a 95       	dec	r24
    373a:	e2 f7       	brpl	.-8      	; 0x3734 <Dio_ReadChannel+0x9a>
    373c:	ca 01       	movw	r24, r20
    373e:	81 70       	andi	r24, 0x01	; 1
    3740:	90 70       	andi	r25, 0x00	; 0
    3742:	88 23       	and	r24, r24
    3744:	19 f0       	breq	.+6      	; 0x374c <Dio_ReadChannel+0xb2>
			res = STD_HIGH;
    3746:	81 e0       	ldi	r24, 0x01	; 1
    3748:	89 83       	std	Y+1, r24	; 0x01
    374a:	31 c0       	rjmp	.+98     	; 0x37ae <Dio_ReadChannel+0x114>
		else
			res = STD_LOW;
    374c:	19 82       	std	Y+1, r1	; 0x01
    374e:	2f c0       	rjmp	.+94     	; 0x37ae <Dio_ReadChannel+0x114>
		break;
	case DIO_PORTC:
		if (GET_BIT(DIO_PINC_REG,pin))
    3750:	e3 e3       	ldi	r30, 0x33	; 51
    3752:	f0 e0       	ldi	r31, 0x00	; 0
    3754:	80 81       	ld	r24, Z
    3756:	28 2f       	mov	r18, r24
    3758:	30 e0       	ldi	r19, 0x00	; 0
    375a:	8b 81       	ldd	r24, Y+3	; 0x03
    375c:	88 2f       	mov	r24, r24
    375e:	90 e0       	ldi	r25, 0x00	; 0
    3760:	a9 01       	movw	r20, r18
    3762:	02 c0       	rjmp	.+4      	; 0x3768 <Dio_ReadChannel+0xce>
    3764:	55 95       	asr	r21
    3766:	47 95       	ror	r20
    3768:	8a 95       	dec	r24
    376a:	e2 f7       	brpl	.-8      	; 0x3764 <Dio_ReadChannel+0xca>
    376c:	ca 01       	movw	r24, r20
    376e:	81 70       	andi	r24, 0x01	; 1
    3770:	90 70       	andi	r25, 0x00	; 0
    3772:	88 23       	and	r24, r24
    3774:	19 f0       	breq	.+6      	; 0x377c <Dio_ReadChannel+0xe2>
			res = STD_HIGH;
    3776:	81 e0       	ldi	r24, 0x01	; 1
    3778:	89 83       	std	Y+1, r24	; 0x01
    377a:	19 c0       	rjmp	.+50     	; 0x37ae <Dio_ReadChannel+0x114>
		else
			res = STD_LOW;
    377c:	19 82       	std	Y+1, r1	; 0x01
    377e:	17 c0       	rjmp	.+46     	; 0x37ae <Dio_ReadChannel+0x114>
		break;
	case DIO_PORTD:
		if (GET_BIT(DIO_PIND_REG,pin))
    3780:	e0 e3       	ldi	r30, 0x30	; 48
    3782:	f0 e0       	ldi	r31, 0x00	; 0
    3784:	80 81       	ld	r24, Z
    3786:	28 2f       	mov	r18, r24
    3788:	30 e0       	ldi	r19, 0x00	; 0
    378a:	8b 81       	ldd	r24, Y+3	; 0x03
    378c:	88 2f       	mov	r24, r24
    378e:	90 e0       	ldi	r25, 0x00	; 0
    3790:	a9 01       	movw	r20, r18
    3792:	02 c0       	rjmp	.+4      	; 0x3798 <Dio_ReadChannel+0xfe>
    3794:	55 95       	asr	r21
    3796:	47 95       	ror	r20
    3798:	8a 95       	dec	r24
    379a:	e2 f7       	brpl	.-8      	; 0x3794 <Dio_ReadChannel+0xfa>
    379c:	ca 01       	movw	r24, r20
    379e:	81 70       	andi	r24, 0x01	; 1
    37a0:	90 70       	andi	r25, 0x00	; 0
    37a2:	88 23       	and	r24, r24
    37a4:	19 f0       	breq	.+6      	; 0x37ac <Dio_ReadChannel+0x112>
			res = STD_HIGH;
    37a6:	81 e0       	ldi	r24, 0x01	; 1
    37a8:	89 83       	std	Y+1, r24	; 0x01
    37aa:	01 c0       	rjmp	.+2      	; 0x37ae <Dio_ReadChannel+0x114>
		else
			res = STD_LOW;
    37ac:	19 82       	std	Y+1, r1	; 0x01
		break;
	}
	return res;
    37ae:	89 81       	ldd	r24, Y+1	; 0x01
}
    37b0:	0f 90       	pop	r0
    37b2:	0f 90       	pop	r0
    37b4:	0f 90       	pop	r0
    37b6:	0f 90       	pop	r0
    37b8:	0f 90       	pop	r0
    37ba:	cf 91       	pop	r28
    37bc:	df 91       	pop	r29
    37be:	08 95       	ret

000037c0 <BUZZER_Init>:
 *      Author: 20100
 */
#include "Buzzer.h"

void BUZZER_Init(void)
{
    37c0:	df 93       	push	r29
    37c2:	cf 93       	push	r28
    37c4:	cd b7       	in	r28, 0x3d	; 61
    37c6:	de b7       	in	r29, 0x3e	; 62
	Dio_ConfigChannel(BUZZER_PORT, BUZZER_PIN, OUTPUT);
    37c8:	80 e0       	ldi	r24, 0x00	; 0
    37ca:	63 e0       	ldi	r22, 0x03	; 3
    37cc:	41 e0       	ldi	r20, 0x01	; 1
    37ce:	0e 94 85 18 	call	0x310a	; 0x310a <Dio_ConfigChannel>
}
    37d2:	cf 91       	pop	r28
    37d4:	df 91       	pop	r29
    37d6:	08 95       	ret

000037d8 <BUZZER_ON>:
void BUZZER_ON(void)
{
    37d8:	df 93       	push	r29
    37da:	cf 93       	push	r28
    37dc:	cd b7       	in	r28, 0x3d	; 61
    37de:	de b7       	in	r29, 0x3e	; 62
	Dio_WriteChannel(BUZZER_PORT, BUZZER_PIN, STD_HIGH);
    37e0:	80 e0       	ldi	r24, 0x00	; 0
    37e2:	63 e0       	ldi	r22, 0x03	; 3
    37e4:	41 e0       	ldi	r20, 0x01	; 1
    37e6:	0e 94 68 19 	call	0x32d0	; 0x32d0 <Dio_WriteChannel>
}
    37ea:	cf 91       	pop	r28
    37ec:	df 91       	pop	r29
    37ee:	08 95       	ret

000037f0 <BUZZER_OFF>:

void BUZZER_OFF(void)
{
    37f0:	df 93       	push	r29
    37f2:	cf 93       	push	r28
    37f4:	cd b7       	in	r28, 0x3d	; 61
    37f6:	de b7       	in	r29, 0x3e	; 62
	Dio_WriteChannel(BUZZER_PORT, BUZZER_PIN, STD_LOW);
    37f8:	80 e0       	ldi	r24, 0x00	; 0
    37fa:	63 e0       	ldi	r22, 0x03	; 3
    37fc:	40 e0       	ldi	r20, 0x00	; 0
    37fe:	0e 94 68 19 	call	0x32d0	; 0x32d0 <Dio_WriteChannel>
}
    3802:	cf 91       	pop	r28
    3804:	df 91       	pop	r29
    3806:	08 95       	ret

00003808 <BUZZER_TOGGLE>:
void BUZZER_TOGGLE(void)
{
    3808:	df 93       	push	r29
    380a:	cf 93       	push	r28
    380c:	cd b7       	in	r28, 0x3d	; 61
    380e:	de b7       	in	r29, 0x3e	; 62
	Dio_ToggleChannel(BUZZER_PORT, BUZZER_PIN);
    3810:	80 e0       	ldi	r24, 0x00	; 0
    3812:	63 e0       	ldi	r22, 0x03	; 3
    3814:	0e 94 d0 1a 	call	0x35a0	; 0x35a0 <Dio_ToggleChannel>
}
    3818:	cf 91       	pop	r28
    381a:	df 91       	pop	r29
    381c:	08 95       	ret

0000381e <Buzzer_GetStatus>:
buzzer_type Buzzer_GetStatus(void)
{
    381e:	df 93       	push	r29
    3820:	cf 93       	push	r28
    3822:	0f 92       	push	r0
    3824:	cd b7       	in	r28, 0x3d	; 61
    3826:	de b7       	in	r29, 0x3e	; 62
	buzzer_type status = OFF;
    3828:	19 82       	std	Y+1, r1	; 0x01
	if(Dio_ReadChannel(BUZZER_PORT, BUZZER_PIN) == STD_HIGH)
    382a:	80 e0       	ldi	r24, 0x00	; 0
    382c:	63 e0       	ldi	r22, 0x03	; 3
    382e:	0e 94 4d 1b 	call	0x369a	; 0x369a <Dio_ReadChannel>
    3832:	81 30       	cpi	r24, 0x01	; 1
    3834:	19 f4       	brne	.+6      	; 0x383c <Buzzer_GetStatus+0x1e>
	{
		status = ON;
    3836:	81 e0       	ldi	r24, 0x01	; 1
    3838:	89 83       	std	Y+1, r24	; 0x01
    383a:	01 c0       	rjmp	.+2      	; 0x383e <Buzzer_GetStatus+0x20>
	}
	else
	{
		status = OFF;
    383c:	19 82       	std	Y+1, r1	; 0x01
	}
	return status;
    383e:	89 81       	ldd	r24, Y+1	; 0x01
}
    3840:	0f 90       	pop	r0
    3842:	cf 91       	pop	r28
    3844:	df 91       	pop	r29
    3846:	08 95       	ret

00003848 <Button_Init>:
 */

#include "Button.h"

void Button_Init(void)
{
    3848:	df 93       	push	r29
    384a:	cf 93       	push	r28
    384c:	cd b7       	in	r28, 0x3d	; 61
    384e:	de b7       	in	r29, 0x3e	; 62
	Dio_ConfigChannel(BUTTON0_PORT, BUTTON0_PIN, INPUT);//BUTTON 0
    3850:	81 e0       	ldi	r24, 0x01	; 1
    3852:	60 e0       	ldi	r22, 0x00	; 0
    3854:	40 e0       	ldi	r20, 0x00	; 0
    3856:	0e 94 85 18 	call	0x310a	; 0x310a <Dio_ConfigChannel>
	//CLR_BIT(DIO_DDRB_REG,0);
	Dio_ConfigChannel(BUTTON1_PORT, BUTTON1_PIN, INPUT);//BUTTON 1
    385a:	83 e0       	ldi	r24, 0x03	; 3
    385c:	66 e0       	ldi	r22, 0x06	; 6
    385e:	40 e0       	ldi	r20, 0x00	; 0
    3860:	0e 94 85 18 	call	0x310a	; 0x310a <Dio_ConfigChannel>
	//CLR_BIT(DIO_DDRD_REG,6);
	Dio_ConfigChannel(BUTTON2_PORT, BUTTON2_PIN, INPUT);//BUTTON 2
    3864:	83 e0       	ldi	r24, 0x03	; 3
    3866:	62 e0       	ldi	r22, 0x02	; 2
    3868:	40 e0       	ldi	r20, 0x00	; 0
    386a:	0e 94 85 18 	call	0x310a	; 0x310a <Dio_ConfigChannel>
	//CLR_BIT(DIO_DDRD_REG,2);
}
    386e:	cf 91       	pop	r28
    3870:	df 91       	pop	r29
    3872:	08 95       	ret

00003874 <Button_GetStatus>:
button_type Button_GetStatus(buttonID_type button)
{
    3874:	df 93       	push	r29
    3876:	cf 93       	push	r28
    3878:	00 d0       	rcall	.+0      	; 0x387a <Button_GetStatus+0x6>
    387a:	00 d0       	rcall	.+0      	; 0x387c <Button_GetStatus+0x8>
    387c:	cd b7       	in	r28, 0x3d	; 61
    387e:	de b7       	in	r29, 0x3e	; 62
    3880:	8a 83       	std	Y+2, r24	; 0x02
	button_type status = RELEASED;
    3882:	19 82       	std	Y+1, r1	; 0x01
	switch (button)
    3884:	8a 81       	ldd	r24, Y+2	; 0x02
    3886:	28 2f       	mov	r18, r24
    3888:	30 e0       	ldi	r19, 0x00	; 0
    388a:	3c 83       	std	Y+4, r19	; 0x04
    388c:	2b 83       	std	Y+3, r18	; 0x03
    388e:	8b 81       	ldd	r24, Y+3	; 0x03
    3890:	9c 81       	ldd	r25, Y+4	; 0x04
    3892:	81 30       	cpi	r24, 0x01	; 1
    3894:	91 05       	cpc	r25, r1
    3896:	a1 f0       	breq	.+40     	; 0x38c0 <Button_GetStatus+0x4c>
    3898:	2b 81       	ldd	r18, Y+3	; 0x03
    389a:	3c 81       	ldd	r19, Y+4	; 0x04
    389c:	22 30       	cpi	r18, 0x02	; 2
    389e:	31 05       	cpc	r19, r1
    38a0:	d1 f0       	breq	.+52     	; 0x38d6 <Button_GetStatus+0x62>
    38a2:	8b 81       	ldd	r24, Y+3	; 0x03
    38a4:	9c 81       	ldd	r25, Y+4	; 0x04
    38a6:	00 97       	sbiw	r24, 0x00	; 0
    38a8:	01 f5       	brne	.+64     	; 0x38ea <Button_GetStatus+0x76>
	{
	case BUTTON0:
		if(Dio_ReadChannel(BUTTON0_PORT, BUTTON0_PIN) == STD_HIGH)
    38aa:	81 e0       	ldi	r24, 0x01	; 1
    38ac:	60 e0       	ldi	r22, 0x00	; 0
    38ae:	0e 94 4d 1b 	call	0x369a	; 0x369a <Dio_ReadChannel>
    38b2:	81 30       	cpi	r24, 0x01	; 1
    38b4:	19 f4       	brne	.+6      	; 0x38bc <Button_GetStatus+0x48>
		{
			status = PRESSED;
    38b6:	81 e0       	ldi	r24, 0x01	; 1
    38b8:	89 83       	std	Y+1, r24	; 0x01
    38ba:	17 c0       	rjmp	.+46     	; 0x38ea <Button_GetStatus+0x76>
		}
		else
		{
			status = RELEASED;
    38bc:	19 82       	std	Y+1, r1	; 0x01
    38be:	15 c0       	rjmp	.+42     	; 0x38ea <Button_GetStatus+0x76>
		}
		break;
	case BUTTON1:
		if(Dio_ReadChannel(BUTTON1_PORT, BUTTON1_PIN) == STD_HIGH)
    38c0:	83 e0       	ldi	r24, 0x03	; 3
    38c2:	66 e0       	ldi	r22, 0x06	; 6
    38c4:	0e 94 4d 1b 	call	0x369a	; 0x369a <Dio_ReadChannel>
    38c8:	81 30       	cpi	r24, 0x01	; 1
    38ca:	19 f4       	brne	.+6      	; 0x38d2 <Button_GetStatus+0x5e>
		{
			status = PRESSED;
    38cc:	81 e0       	ldi	r24, 0x01	; 1
    38ce:	89 83       	std	Y+1, r24	; 0x01
    38d0:	0c c0       	rjmp	.+24     	; 0x38ea <Button_GetStatus+0x76>
		}
		else
		{
			status = RELEASED;
    38d2:	19 82       	std	Y+1, r1	; 0x01
    38d4:	0a c0       	rjmp	.+20     	; 0x38ea <Button_GetStatus+0x76>
		}
		break;
	case BUTTON2:
		if(Dio_ReadChannel(BUTTON2_PORT, BUTTON2_PIN) == STD_HIGH)
    38d6:	83 e0       	ldi	r24, 0x03	; 3
    38d8:	62 e0       	ldi	r22, 0x02	; 2
    38da:	0e 94 4d 1b 	call	0x369a	; 0x369a <Dio_ReadChannel>
    38de:	81 30       	cpi	r24, 0x01	; 1
    38e0:	19 f4       	brne	.+6      	; 0x38e8 <Button_GetStatus+0x74>
		{
			status = PRESSED;
    38e2:	81 e0       	ldi	r24, 0x01	; 1
    38e4:	89 83       	std	Y+1, r24	; 0x01
    38e6:	01 c0       	rjmp	.+2      	; 0x38ea <Button_GetStatus+0x76>
		}
		else
		{
			status = RELEASED;
    38e8:	19 82       	std	Y+1, r1	; 0x01
		}
		break;


	}
	return status;
    38ea:	89 81       	ldd	r24, Y+1	; 0x01
}
    38ec:	0f 90       	pop	r0
    38ee:	0f 90       	pop	r0
    38f0:	0f 90       	pop	r0
    38f2:	0f 90       	pop	r0
    38f4:	cf 91       	pop	r28
    38f6:	df 91       	pop	r29
    38f8:	08 95       	ret

000038fa <TIMER0_Init>:
 * Target	:  ATMEGA32
 * Author	:  Eng_Fawzi
 ********************************/
#include "Timer0.h"
void TIMER0_Init(void)
{
    38fa:	df 93       	push	r29
    38fc:	cf 93       	push	r28
    38fe:	cd b7       	in	r28, 0x3d	; 61
    3900:	de b7       	in	r29, 0x3e	; 62
	#if (TIMER_OPERATION_MODE == TIMER0_MODE_INTERVAL)
		TIMER0_TCCR0_REG|= TIMER0_INTERVAL_MODE;
    3902:	e3 e5       	ldi	r30, 0x53	; 83
    3904:	f0 e0       	ldi	r31, 0x00	; 0
    3906:	a3 e5       	ldi	r26, 0x53	; 83
    3908:	b0 e0       	ldi	r27, 0x00	; 0
    390a:	8c 91       	ld	r24, X
    390c:	80 83       	st	Z, r24
	#elif (TIMER_OPERATION_MODE == TIMER0_MODE_PWM_PHASE_CORRECT)
		TIMER0_TCCR0_REG|= TIMER0_PWM_PHASE_CORRECT;
	#else
	#error "You Shall Define Timer Operation Mode In Timer0_Cfg.h"
	#endif
}
    390e:	cf 91       	pop	r28
    3910:	df 91       	pop	r29
    3912:	08 95       	ret

00003914 <TIMER0_Start>:
#if ((TIMER_OPERATION_MODE == TIMER0_MODE_INTERVAL) || (TIMER_OPERATION_MODE == TIMER0_MODE_CTC))
void TIMER0_Start(u8 prescaler)
{
    3914:	df 93       	push	r29
    3916:	cf 93       	push	r28
    3918:	0f 92       	push	r0
    391a:	cd b7       	in	r28, 0x3d	; 61
    391c:	de b7       	in	r29, 0x3e	; 62
    391e:	89 83       	std	Y+1, r24	; 0x01
	TIMER0_TCCR0_REG |=prescaler;
    3920:	a3 e5       	ldi	r26, 0x53	; 83
    3922:	b0 e0       	ldi	r27, 0x00	; 0
    3924:	e3 e5       	ldi	r30, 0x53	; 83
    3926:	f0 e0       	ldi	r31, 0x00	; 0
    3928:	90 81       	ld	r25, Z
    392a:	89 81       	ldd	r24, Y+1	; 0x01
    392c:	89 2b       	or	r24, r25
    392e:	8c 93       	st	X, r24
}
    3930:	0f 90       	pop	r0
    3932:	cf 91       	pop	r28
    3934:	df 91       	pop	r29
    3936:	08 95       	ret

00003938 <TIMER0_Stop>:

void TIMER0_Stop(void)
{
    3938:	df 93       	push	r29
    393a:	cf 93       	push	r28
    393c:	cd b7       	in	r28, 0x3d	; 61
    393e:	de b7       	in	r29, 0x3e	; 62
	TIMER0_TCCR0_REG &=0xFC;
    3940:	a3 e5       	ldi	r26, 0x53	; 83
    3942:	b0 e0       	ldi	r27, 0x00	; 0
    3944:	e3 e5       	ldi	r30, 0x53	; 83
    3946:	f0 e0       	ldi	r31, 0x00	; 0
    3948:	80 81       	ld	r24, Z
    394a:	8c 7f       	andi	r24, 0xFC	; 252
    394c:	8c 93       	st	X, r24
}
    394e:	cf 91       	pop	r28
    3950:	df 91       	pop	r29
    3952:	08 95       	ret

00003954 <TIMER0_SetPreload>:

void TIMER0_SetPreload(u8 preLoadValue)
{
    3954:	df 93       	push	r29
    3956:	cf 93       	push	r28
    3958:	0f 92       	push	r0
    395a:	cd b7       	in	r28, 0x3d	; 61
    395c:	de b7       	in	r29, 0x3e	; 62
    395e:	89 83       	std	Y+1, r24	; 0x01
	TIMER0_TCNT0_REG = preLoadValue;
    3960:	e2 e5       	ldi	r30, 0x52	; 82
    3962:	f0 e0       	ldi	r31, 0x00	; 0
    3964:	89 81       	ldd	r24, Y+1	; 0x01
    3966:	80 83       	st	Z, r24
}
    3968:	0f 90       	pop	r0
    396a:	cf 91       	pop	r28
    396c:	df 91       	pop	r29
    396e:	08 95       	ret

00003970 <TIMER0_GetPreload>:
u8 TIMER0_GetPreload()
{
    3970:	df 93       	push	r29
    3972:	cf 93       	push	r28
    3974:	cd b7       	in	r28, 0x3d	; 61
    3976:	de b7       	in	r29, 0x3e	; 62
	return TIMER0_TCNT0_REG;
    3978:	e2 e5       	ldi	r30, 0x52	; 82
    397a:	f0 e0       	ldi	r31, 0x00	; 0
    397c:	80 81       	ld	r24, Z
}
    397e:	cf 91       	pop	r28
    3980:	df 91       	pop	r29
    3982:	08 95       	ret

00003984 <TIMER0_EnableInterrupt>:
void TIMER0_EnableInterrupt(void)
{
    3984:	df 93       	push	r29
    3986:	cf 93       	push	r28
    3988:	cd b7       	in	r28, 0x3d	; 61
    398a:	de b7       	in	r29, 0x3e	; 62
#if (TIMER_OPERATION_MODE == TIMER0_MODE_INTERVAL)
	SET_BIT(TIMER0_TIMSK_REG,TIMER0_INTERVAL_INT_ENABLE_BIT_NO);
    398c:	a9 e5       	ldi	r26, 0x59	; 89
    398e:	b0 e0       	ldi	r27, 0x00	; 0
    3990:	e9 e5       	ldi	r30, 0x59	; 89
    3992:	f0 e0       	ldi	r31, 0x00	; 0
    3994:	80 81       	ld	r24, Z
    3996:	81 60       	ori	r24, 0x01	; 1
    3998:	8c 93       	st	X, r24
#elif (TIMER_OPERATION_MODE == TIMER0_MODE_CTC)
	SET_BIT(TIMER0_TIMSK_REG,TIMER0_CTC_INT_ENABLE_BIT_NO);
#endif
}
    399a:	cf 91       	pop	r28
    399c:	df 91       	pop	r29
    399e:	08 95       	ret

000039a0 <TIMER0_DisableInterrupt>:
void TIMER0_DisableInterrupt(void)
{
    39a0:	df 93       	push	r29
    39a2:	cf 93       	push	r28
    39a4:	cd b7       	in	r28, 0x3d	; 61
    39a6:	de b7       	in	r29, 0x3e	; 62
#if (TIMER_OPERATION_MODE == TIMER0_MODE_INTERVAL)
	CLR_BIT(TIMER0_TIMSK_REG,TIMER0_INTERVAL_INT_ENABLE_BIT_NO);
    39a8:	a9 e5       	ldi	r26, 0x59	; 89
    39aa:	b0 e0       	ldi	r27, 0x00	; 0
    39ac:	e9 e5       	ldi	r30, 0x59	; 89
    39ae:	f0 e0       	ldi	r31, 0x00	; 0
    39b0:	80 81       	ld	r24, Z
    39b2:	8e 7f       	andi	r24, 0xFE	; 254
    39b4:	8c 93       	st	X, r24
#elif (TIMER_OPERATION_MODE == TIMER0_MODE_CTC)
	CLR_BIT(TIMER0_TIMSK_REG,TIMER0_CTC_INT_ENABLE_BIT_NO);
#endif
}
    39b6:	cf 91       	pop	r28
    39b8:	df 91       	pop	r29
    39ba:	08 95       	ret

000039bc <TIMER0_SetCompareValue>:
void TIMER0_SetCompareValue(u8 compareValue)
{
    39bc:	df 93       	push	r29
    39be:	cf 93       	push	r28
    39c0:	0f 92       	push	r0
    39c2:	cd b7       	in	r28, 0x3d	; 61
    39c4:	de b7       	in	r29, 0x3e	; 62
    39c6:	89 83       	std	Y+1, r24	; 0x01
	TIMER0_OCR0_REG = compareValue;
    39c8:	ec e5       	ldi	r30, 0x5C	; 92
    39ca:	f0 e0       	ldi	r31, 0x00	; 0
    39cc:	89 81       	ldd	r24, Y+1	; 0x01
    39ce:	80 83       	st	Z, r24
}
    39d0:	0f 90       	pop	r0
    39d2:	cf 91       	pop	r28
    39d4:	df 91       	pop	r29
    39d6:	08 95       	ret

000039d8 <__udivmodqi4>:
    39d8:	99 1b       	sub	r25, r25
    39da:	79 e0       	ldi	r23, 0x09	; 9
    39dc:	04 c0       	rjmp	.+8      	; 0x39e6 <__udivmodqi4_ep>

000039de <__udivmodqi4_loop>:
    39de:	99 1f       	adc	r25, r25
    39e0:	96 17       	cp	r25, r22
    39e2:	08 f0       	brcs	.+2      	; 0x39e6 <__udivmodqi4_ep>
    39e4:	96 1b       	sub	r25, r22

000039e6 <__udivmodqi4_ep>:
    39e6:	88 1f       	adc	r24, r24
    39e8:	7a 95       	dec	r23
    39ea:	c9 f7       	brne	.-14     	; 0x39de <__udivmodqi4_loop>
    39ec:	80 95       	com	r24
    39ee:	08 95       	ret

000039f0 <__udivmodhi4>:
    39f0:	aa 1b       	sub	r26, r26
    39f2:	bb 1b       	sub	r27, r27
    39f4:	51 e1       	ldi	r21, 0x11	; 17
    39f6:	07 c0       	rjmp	.+14     	; 0x3a06 <__udivmodhi4_ep>

000039f8 <__udivmodhi4_loop>:
    39f8:	aa 1f       	adc	r26, r26
    39fa:	bb 1f       	adc	r27, r27
    39fc:	a6 17       	cp	r26, r22
    39fe:	b7 07       	cpc	r27, r23
    3a00:	10 f0       	brcs	.+4      	; 0x3a06 <__udivmodhi4_ep>
    3a02:	a6 1b       	sub	r26, r22
    3a04:	b7 0b       	sbc	r27, r23

00003a06 <__udivmodhi4_ep>:
    3a06:	88 1f       	adc	r24, r24
    3a08:	99 1f       	adc	r25, r25
    3a0a:	5a 95       	dec	r21
    3a0c:	a9 f7       	brne	.-22     	; 0x39f8 <__udivmodhi4_loop>
    3a0e:	80 95       	com	r24
    3a10:	90 95       	com	r25
    3a12:	bc 01       	movw	r22, r24
    3a14:	cd 01       	movw	r24, r26
    3a16:	08 95       	ret

00003a18 <__divmodhi4>:
    3a18:	97 fb       	bst	r25, 7
    3a1a:	09 2e       	mov	r0, r25
    3a1c:	07 26       	eor	r0, r23
    3a1e:	0a d0       	rcall	.+20     	; 0x3a34 <__divmodhi4_neg1>
    3a20:	77 fd       	sbrc	r23, 7
    3a22:	04 d0       	rcall	.+8      	; 0x3a2c <__divmodhi4_neg2>
    3a24:	e5 df       	rcall	.-54     	; 0x39f0 <__udivmodhi4>
    3a26:	06 d0       	rcall	.+12     	; 0x3a34 <__divmodhi4_neg1>
    3a28:	00 20       	and	r0, r0
    3a2a:	1a f4       	brpl	.+6      	; 0x3a32 <__divmodhi4_exit>

00003a2c <__divmodhi4_neg2>:
    3a2c:	70 95       	com	r23
    3a2e:	61 95       	neg	r22
    3a30:	7f 4f       	sbci	r23, 0xFF	; 255

00003a32 <__divmodhi4_exit>:
    3a32:	08 95       	ret

00003a34 <__divmodhi4_neg1>:
    3a34:	f6 f7       	brtc	.-4      	; 0x3a32 <__divmodhi4_exit>
    3a36:	90 95       	com	r25
    3a38:	81 95       	neg	r24
    3a3a:	9f 4f       	sbci	r25, 0xFF	; 255
    3a3c:	08 95       	ret

00003a3e <__prologue_saves__>:
    3a3e:	2f 92       	push	r2
    3a40:	3f 92       	push	r3
    3a42:	4f 92       	push	r4
    3a44:	5f 92       	push	r5
    3a46:	6f 92       	push	r6
    3a48:	7f 92       	push	r7
    3a4a:	8f 92       	push	r8
    3a4c:	9f 92       	push	r9
    3a4e:	af 92       	push	r10
    3a50:	bf 92       	push	r11
    3a52:	cf 92       	push	r12
    3a54:	df 92       	push	r13
    3a56:	ef 92       	push	r14
    3a58:	ff 92       	push	r15
    3a5a:	0f 93       	push	r16
    3a5c:	1f 93       	push	r17
    3a5e:	cf 93       	push	r28
    3a60:	df 93       	push	r29
    3a62:	cd b7       	in	r28, 0x3d	; 61
    3a64:	de b7       	in	r29, 0x3e	; 62
    3a66:	ca 1b       	sub	r28, r26
    3a68:	db 0b       	sbc	r29, r27
    3a6a:	0f b6       	in	r0, 0x3f	; 63
    3a6c:	f8 94       	cli
    3a6e:	de bf       	out	0x3e, r29	; 62
    3a70:	0f be       	out	0x3f, r0	; 63
    3a72:	cd bf       	out	0x3d, r28	; 61
    3a74:	09 94       	ijmp

00003a76 <__epilogue_restores__>:
    3a76:	2a 88       	ldd	r2, Y+18	; 0x12
    3a78:	39 88       	ldd	r3, Y+17	; 0x11
    3a7a:	48 88       	ldd	r4, Y+16	; 0x10
    3a7c:	5f 84       	ldd	r5, Y+15	; 0x0f
    3a7e:	6e 84       	ldd	r6, Y+14	; 0x0e
    3a80:	7d 84       	ldd	r7, Y+13	; 0x0d
    3a82:	8c 84       	ldd	r8, Y+12	; 0x0c
    3a84:	9b 84       	ldd	r9, Y+11	; 0x0b
    3a86:	aa 84       	ldd	r10, Y+10	; 0x0a
    3a88:	b9 84       	ldd	r11, Y+9	; 0x09
    3a8a:	c8 84       	ldd	r12, Y+8	; 0x08
    3a8c:	df 80       	ldd	r13, Y+7	; 0x07
    3a8e:	ee 80       	ldd	r14, Y+6	; 0x06
    3a90:	fd 80       	ldd	r15, Y+5	; 0x05
    3a92:	0c 81       	ldd	r16, Y+4	; 0x04
    3a94:	1b 81       	ldd	r17, Y+3	; 0x03
    3a96:	aa 81       	ldd	r26, Y+2	; 0x02
    3a98:	b9 81       	ldd	r27, Y+1	; 0x01
    3a9a:	ce 0f       	add	r28, r30
    3a9c:	d1 1d       	adc	r29, r1
    3a9e:	0f b6       	in	r0, 0x3f	; 63
    3aa0:	f8 94       	cli
    3aa2:	de bf       	out	0x3e, r29	; 62
    3aa4:	0f be       	out	0x3f, r0	; 63
    3aa6:	cd bf       	out	0x3d, r28	; 61
    3aa8:	ed 01       	movw	r28, r26
    3aaa:	08 95       	ret

00003aac <memcpy>:
    3aac:	fb 01       	movw	r30, r22
    3aae:	dc 01       	movw	r26, r24
    3ab0:	02 c0       	rjmp	.+4      	; 0x3ab6 <memcpy+0xa>
    3ab2:	01 90       	ld	r0, Z+
    3ab4:	0d 92       	st	X+, r0
    3ab6:	41 50       	subi	r20, 0x01	; 1
    3ab8:	50 40       	sbci	r21, 0x00	; 0
    3aba:	d8 f7       	brcc	.-10     	; 0x3ab2 <memcpy+0x6>
    3abc:	08 95       	ret

00003abe <strcat>:
    3abe:	fb 01       	movw	r30, r22
    3ac0:	dc 01       	movw	r26, r24
    3ac2:	0d 90       	ld	r0, X+
    3ac4:	00 20       	and	r0, r0
    3ac6:	e9 f7       	brne	.-6      	; 0x3ac2 <strcat+0x4>
    3ac8:	11 97       	sbiw	r26, 0x01	; 1
    3aca:	01 90       	ld	r0, Z+
    3acc:	0d 92       	st	X+, r0
    3ace:	00 20       	and	r0, r0
    3ad0:	e1 f7       	brne	.-8      	; 0x3aca <strcat+0xc>
    3ad2:	08 95       	ret

00003ad4 <strcpy>:
    3ad4:	fb 01       	movw	r30, r22
    3ad6:	dc 01       	movw	r26, r24
    3ad8:	01 90       	ld	r0, Z+
    3ada:	0d 92       	st	X+, r0
    3adc:	00 20       	and	r0, r0
    3ade:	e1 f7       	brne	.-8      	; 0x3ad8 <strcpy+0x4>
    3ae0:	08 95       	ret

00003ae2 <strlen>:
    3ae2:	fc 01       	movw	r30, r24
    3ae4:	01 90       	ld	r0, Z+
    3ae6:	00 20       	and	r0, r0
    3ae8:	e9 f7       	brne	.-6      	; 0x3ae4 <strlen+0x2>
    3aea:	80 95       	com	r24
    3aec:	90 95       	com	r25
    3aee:	8e 0f       	add	r24, r30
    3af0:	9f 1f       	adc	r25, r31
    3af2:	08 95       	ret

00003af4 <sprintf>:
    3af4:	ae e0       	ldi	r26, 0x0E	; 14
    3af6:	b0 e0       	ldi	r27, 0x00	; 0
    3af8:	e0 e8       	ldi	r30, 0x80	; 128
    3afa:	fd e1       	ldi	r31, 0x1D	; 29
    3afc:	0c 94 2d 1d 	jmp	0x3a5a	; 0x3a5a <__prologue_saves__+0x1c>
    3b00:	0d 89       	ldd	r16, Y+21	; 0x15
    3b02:	1e 89       	ldd	r17, Y+22	; 0x16
    3b04:	86 e0       	ldi	r24, 0x06	; 6
    3b06:	8c 83       	std	Y+4, r24	; 0x04
    3b08:	1a 83       	std	Y+2, r17	; 0x02
    3b0a:	09 83       	std	Y+1, r16	; 0x01
    3b0c:	8f ef       	ldi	r24, 0xFF	; 255
    3b0e:	9f e7       	ldi	r25, 0x7F	; 127
    3b10:	9e 83       	std	Y+6, r25	; 0x06
    3b12:	8d 83       	std	Y+5, r24	; 0x05
    3b14:	9e 01       	movw	r18, r28
    3b16:	27 5e       	subi	r18, 0xE7	; 231
    3b18:	3f 4f       	sbci	r19, 0xFF	; 255
    3b1a:	ce 01       	movw	r24, r28
    3b1c:	01 96       	adiw	r24, 0x01	; 1
    3b1e:	6f 89       	ldd	r22, Y+23	; 0x17
    3b20:	78 8d       	ldd	r23, Y+24	; 0x18
    3b22:	a9 01       	movw	r20, r18
    3b24:	0e 94 9e 1d 	call	0x3b3c	; 0x3b3c <vfprintf>
    3b28:	2f 81       	ldd	r18, Y+7	; 0x07
    3b2a:	38 85       	ldd	r19, Y+8	; 0x08
    3b2c:	02 0f       	add	r16, r18
    3b2e:	13 1f       	adc	r17, r19
    3b30:	f8 01       	movw	r30, r16
    3b32:	10 82       	st	Z, r1
    3b34:	2e 96       	adiw	r28, 0x0e	; 14
    3b36:	e4 e0       	ldi	r30, 0x04	; 4
    3b38:	0c 94 49 1d 	jmp	0x3a92	; 0x3a92 <__epilogue_restores__+0x1c>

00003b3c <vfprintf>:
    3b3c:	ab e0       	ldi	r26, 0x0B	; 11
    3b3e:	b0 e0       	ldi	r27, 0x00	; 0
    3b40:	e4 ea       	ldi	r30, 0xA4	; 164
    3b42:	fd e1       	ldi	r31, 0x1D	; 29
    3b44:	0c 94 1f 1d 	jmp	0x3a3e	; 0x3a3e <__prologue_saves__>
    3b48:	3c 01       	movw	r6, r24
    3b4a:	2b 01       	movw	r4, r22
    3b4c:	5a 01       	movw	r10, r20
    3b4e:	fc 01       	movw	r30, r24
    3b50:	17 82       	std	Z+7, r1	; 0x07
    3b52:	16 82       	std	Z+6, r1	; 0x06
    3b54:	83 81       	ldd	r24, Z+3	; 0x03
    3b56:	81 fd       	sbrc	r24, 1
    3b58:	03 c0       	rjmp	.+6      	; 0x3b60 <vfprintf+0x24>
    3b5a:	6f ef       	ldi	r22, 0xFF	; 255
    3b5c:	7f ef       	ldi	r23, 0xFF	; 255
    3b5e:	c6 c1       	rjmp	.+908    	; 0x3eec <vfprintf+0x3b0>
    3b60:	9a e0       	ldi	r25, 0x0A	; 10
    3b62:	89 2e       	mov	r8, r25
    3b64:	1e 01       	movw	r2, r28
    3b66:	08 94       	sec
    3b68:	21 1c       	adc	r2, r1
    3b6a:	31 1c       	adc	r3, r1
    3b6c:	f3 01       	movw	r30, r6
    3b6e:	23 81       	ldd	r18, Z+3	; 0x03
    3b70:	f2 01       	movw	r30, r4
    3b72:	23 fd       	sbrc	r18, 3
    3b74:	85 91       	lpm	r24, Z+
    3b76:	23 ff       	sbrs	r18, 3
    3b78:	81 91       	ld	r24, Z+
    3b7a:	2f 01       	movw	r4, r30
    3b7c:	88 23       	and	r24, r24
    3b7e:	09 f4       	brne	.+2      	; 0x3b82 <vfprintf+0x46>
    3b80:	b2 c1       	rjmp	.+868    	; 0x3ee6 <vfprintf+0x3aa>
    3b82:	85 32       	cpi	r24, 0x25	; 37
    3b84:	39 f4       	brne	.+14     	; 0x3b94 <vfprintf+0x58>
    3b86:	23 fd       	sbrc	r18, 3
    3b88:	85 91       	lpm	r24, Z+
    3b8a:	23 ff       	sbrs	r18, 3
    3b8c:	81 91       	ld	r24, Z+
    3b8e:	2f 01       	movw	r4, r30
    3b90:	85 32       	cpi	r24, 0x25	; 37
    3b92:	29 f4       	brne	.+10     	; 0x3b9e <vfprintf+0x62>
    3b94:	90 e0       	ldi	r25, 0x00	; 0
    3b96:	b3 01       	movw	r22, r6
    3b98:	0e 94 91 1f 	call	0x3f22	; 0x3f22 <fputc>
    3b9c:	e7 cf       	rjmp	.-50     	; 0x3b6c <vfprintf+0x30>
    3b9e:	98 2f       	mov	r25, r24
    3ba0:	ff 24       	eor	r15, r15
    3ba2:	ee 24       	eor	r14, r14
    3ba4:	99 24       	eor	r9, r9
    3ba6:	ff e1       	ldi	r31, 0x1F	; 31
    3ba8:	ff 15       	cp	r31, r15
    3baa:	d0 f0       	brcs	.+52     	; 0x3be0 <vfprintf+0xa4>
    3bac:	9b 32       	cpi	r25, 0x2B	; 43
    3bae:	69 f0       	breq	.+26     	; 0x3bca <vfprintf+0x8e>
    3bb0:	9c 32       	cpi	r25, 0x2C	; 44
    3bb2:	28 f4       	brcc	.+10     	; 0x3bbe <vfprintf+0x82>
    3bb4:	90 32       	cpi	r25, 0x20	; 32
    3bb6:	59 f0       	breq	.+22     	; 0x3bce <vfprintf+0x92>
    3bb8:	93 32       	cpi	r25, 0x23	; 35
    3bba:	91 f4       	brne	.+36     	; 0x3be0 <vfprintf+0xa4>
    3bbc:	0e c0       	rjmp	.+28     	; 0x3bda <vfprintf+0x9e>
    3bbe:	9d 32       	cpi	r25, 0x2D	; 45
    3bc0:	49 f0       	breq	.+18     	; 0x3bd4 <vfprintf+0x98>
    3bc2:	90 33       	cpi	r25, 0x30	; 48
    3bc4:	69 f4       	brne	.+26     	; 0x3be0 <vfprintf+0xa4>
    3bc6:	41 e0       	ldi	r20, 0x01	; 1
    3bc8:	24 c0       	rjmp	.+72     	; 0x3c12 <vfprintf+0xd6>
    3bca:	52 e0       	ldi	r21, 0x02	; 2
    3bcc:	f5 2a       	or	r15, r21
    3bce:	84 e0       	ldi	r24, 0x04	; 4
    3bd0:	f8 2a       	or	r15, r24
    3bd2:	28 c0       	rjmp	.+80     	; 0x3c24 <vfprintf+0xe8>
    3bd4:	98 e0       	ldi	r25, 0x08	; 8
    3bd6:	f9 2a       	or	r15, r25
    3bd8:	25 c0       	rjmp	.+74     	; 0x3c24 <vfprintf+0xe8>
    3bda:	e0 e1       	ldi	r30, 0x10	; 16
    3bdc:	fe 2a       	or	r15, r30
    3bde:	22 c0       	rjmp	.+68     	; 0x3c24 <vfprintf+0xe8>
    3be0:	f7 fc       	sbrc	r15, 7
    3be2:	29 c0       	rjmp	.+82     	; 0x3c36 <vfprintf+0xfa>
    3be4:	89 2f       	mov	r24, r25
    3be6:	80 53       	subi	r24, 0x30	; 48
    3be8:	8a 30       	cpi	r24, 0x0A	; 10
    3bea:	70 f4       	brcc	.+28     	; 0x3c08 <vfprintf+0xcc>
    3bec:	f6 fe       	sbrs	r15, 6
    3bee:	05 c0       	rjmp	.+10     	; 0x3bfa <vfprintf+0xbe>
    3bf0:	98 9c       	mul	r9, r8
    3bf2:	90 2c       	mov	r9, r0
    3bf4:	11 24       	eor	r1, r1
    3bf6:	98 0e       	add	r9, r24
    3bf8:	15 c0       	rjmp	.+42     	; 0x3c24 <vfprintf+0xe8>
    3bfa:	e8 9c       	mul	r14, r8
    3bfc:	e0 2c       	mov	r14, r0
    3bfe:	11 24       	eor	r1, r1
    3c00:	e8 0e       	add	r14, r24
    3c02:	f0 e2       	ldi	r31, 0x20	; 32
    3c04:	ff 2a       	or	r15, r31
    3c06:	0e c0       	rjmp	.+28     	; 0x3c24 <vfprintf+0xe8>
    3c08:	9e 32       	cpi	r25, 0x2E	; 46
    3c0a:	29 f4       	brne	.+10     	; 0x3c16 <vfprintf+0xda>
    3c0c:	f6 fc       	sbrc	r15, 6
    3c0e:	6b c1       	rjmp	.+726    	; 0x3ee6 <vfprintf+0x3aa>
    3c10:	40 e4       	ldi	r20, 0x40	; 64
    3c12:	f4 2a       	or	r15, r20
    3c14:	07 c0       	rjmp	.+14     	; 0x3c24 <vfprintf+0xe8>
    3c16:	9c 36       	cpi	r25, 0x6C	; 108
    3c18:	19 f4       	brne	.+6      	; 0x3c20 <vfprintf+0xe4>
    3c1a:	50 e8       	ldi	r21, 0x80	; 128
    3c1c:	f5 2a       	or	r15, r21
    3c1e:	02 c0       	rjmp	.+4      	; 0x3c24 <vfprintf+0xe8>
    3c20:	98 36       	cpi	r25, 0x68	; 104
    3c22:	49 f4       	brne	.+18     	; 0x3c36 <vfprintf+0xfa>
    3c24:	f2 01       	movw	r30, r4
    3c26:	23 fd       	sbrc	r18, 3
    3c28:	95 91       	lpm	r25, Z+
    3c2a:	23 ff       	sbrs	r18, 3
    3c2c:	91 91       	ld	r25, Z+
    3c2e:	2f 01       	movw	r4, r30
    3c30:	99 23       	and	r25, r25
    3c32:	09 f0       	breq	.+2      	; 0x3c36 <vfprintf+0xfa>
    3c34:	b8 cf       	rjmp	.-144    	; 0x3ba6 <vfprintf+0x6a>
    3c36:	89 2f       	mov	r24, r25
    3c38:	85 54       	subi	r24, 0x45	; 69
    3c3a:	83 30       	cpi	r24, 0x03	; 3
    3c3c:	18 f0       	brcs	.+6      	; 0x3c44 <vfprintf+0x108>
    3c3e:	80 52       	subi	r24, 0x20	; 32
    3c40:	83 30       	cpi	r24, 0x03	; 3
    3c42:	38 f4       	brcc	.+14     	; 0x3c52 <vfprintf+0x116>
    3c44:	44 e0       	ldi	r20, 0x04	; 4
    3c46:	50 e0       	ldi	r21, 0x00	; 0
    3c48:	a4 0e       	add	r10, r20
    3c4a:	b5 1e       	adc	r11, r21
    3c4c:	5f e3       	ldi	r21, 0x3F	; 63
    3c4e:	59 83       	std	Y+1, r21	; 0x01
    3c50:	0f c0       	rjmp	.+30     	; 0x3c70 <vfprintf+0x134>
    3c52:	93 36       	cpi	r25, 0x63	; 99
    3c54:	31 f0       	breq	.+12     	; 0x3c62 <vfprintf+0x126>
    3c56:	93 37       	cpi	r25, 0x73	; 115
    3c58:	79 f0       	breq	.+30     	; 0x3c78 <vfprintf+0x13c>
    3c5a:	93 35       	cpi	r25, 0x53	; 83
    3c5c:	09 f0       	breq	.+2      	; 0x3c60 <vfprintf+0x124>
    3c5e:	56 c0       	rjmp	.+172    	; 0x3d0c <vfprintf+0x1d0>
    3c60:	20 c0       	rjmp	.+64     	; 0x3ca2 <vfprintf+0x166>
    3c62:	f5 01       	movw	r30, r10
    3c64:	80 81       	ld	r24, Z
    3c66:	89 83       	std	Y+1, r24	; 0x01
    3c68:	42 e0       	ldi	r20, 0x02	; 2
    3c6a:	50 e0       	ldi	r21, 0x00	; 0
    3c6c:	a4 0e       	add	r10, r20
    3c6e:	b5 1e       	adc	r11, r21
    3c70:	61 01       	movw	r12, r2
    3c72:	01 e0       	ldi	r16, 0x01	; 1
    3c74:	10 e0       	ldi	r17, 0x00	; 0
    3c76:	12 c0       	rjmp	.+36     	; 0x3c9c <vfprintf+0x160>
    3c78:	f5 01       	movw	r30, r10
    3c7a:	c0 80       	ld	r12, Z
    3c7c:	d1 80       	ldd	r13, Z+1	; 0x01
    3c7e:	f6 fc       	sbrc	r15, 6
    3c80:	03 c0       	rjmp	.+6      	; 0x3c88 <vfprintf+0x14c>
    3c82:	6f ef       	ldi	r22, 0xFF	; 255
    3c84:	7f ef       	ldi	r23, 0xFF	; 255
    3c86:	02 c0       	rjmp	.+4      	; 0x3c8c <vfprintf+0x150>
    3c88:	69 2d       	mov	r22, r9
    3c8a:	70 e0       	ldi	r23, 0x00	; 0
    3c8c:	42 e0       	ldi	r20, 0x02	; 2
    3c8e:	50 e0       	ldi	r21, 0x00	; 0
    3c90:	a4 0e       	add	r10, r20
    3c92:	b5 1e       	adc	r11, r21
    3c94:	c6 01       	movw	r24, r12
    3c96:	0e 94 86 1f 	call	0x3f0c	; 0x3f0c <strnlen>
    3c9a:	8c 01       	movw	r16, r24
    3c9c:	5f e7       	ldi	r21, 0x7F	; 127
    3c9e:	f5 22       	and	r15, r21
    3ca0:	14 c0       	rjmp	.+40     	; 0x3cca <vfprintf+0x18e>
    3ca2:	f5 01       	movw	r30, r10
    3ca4:	c0 80       	ld	r12, Z
    3ca6:	d1 80       	ldd	r13, Z+1	; 0x01
    3ca8:	f6 fc       	sbrc	r15, 6
    3caa:	03 c0       	rjmp	.+6      	; 0x3cb2 <vfprintf+0x176>
    3cac:	6f ef       	ldi	r22, 0xFF	; 255
    3cae:	7f ef       	ldi	r23, 0xFF	; 255
    3cb0:	02 c0       	rjmp	.+4      	; 0x3cb6 <vfprintf+0x17a>
    3cb2:	69 2d       	mov	r22, r9
    3cb4:	70 e0       	ldi	r23, 0x00	; 0
    3cb6:	42 e0       	ldi	r20, 0x02	; 2
    3cb8:	50 e0       	ldi	r21, 0x00	; 0
    3cba:	a4 0e       	add	r10, r20
    3cbc:	b5 1e       	adc	r11, r21
    3cbe:	c6 01       	movw	r24, r12
    3cc0:	0e 94 7b 1f 	call	0x3ef6	; 0x3ef6 <strnlen_P>
    3cc4:	8c 01       	movw	r16, r24
    3cc6:	50 e8       	ldi	r21, 0x80	; 128
    3cc8:	f5 2a       	or	r15, r21
    3cca:	f3 fe       	sbrs	r15, 3
    3ccc:	07 c0       	rjmp	.+14     	; 0x3cdc <vfprintf+0x1a0>
    3cce:	1a c0       	rjmp	.+52     	; 0x3d04 <vfprintf+0x1c8>
    3cd0:	80 e2       	ldi	r24, 0x20	; 32
    3cd2:	90 e0       	ldi	r25, 0x00	; 0
    3cd4:	b3 01       	movw	r22, r6
    3cd6:	0e 94 91 1f 	call	0x3f22	; 0x3f22 <fputc>
    3cda:	ea 94       	dec	r14
    3cdc:	8e 2d       	mov	r24, r14
    3cde:	90 e0       	ldi	r25, 0x00	; 0
    3ce0:	08 17       	cp	r16, r24
    3ce2:	19 07       	cpc	r17, r25
    3ce4:	a8 f3       	brcs	.-22     	; 0x3cd0 <vfprintf+0x194>
    3ce6:	0e c0       	rjmp	.+28     	; 0x3d04 <vfprintf+0x1c8>
    3ce8:	f6 01       	movw	r30, r12
    3cea:	f7 fc       	sbrc	r15, 7
    3cec:	85 91       	lpm	r24, Z+
    3cee:	f7 fe       	sbrs	r15, 7
    3cf0:	81 91       	ld	r24, Z+
    3cf2:	6f 01       	movw	r12, r30
    3cf4:	90 e0       	ldi	r25, 0x00	; 0
    3cf6:	b3 01       	movw	r22, r6
    3cf8:	0e 94 91 1f 	call	0x3f22	; 0x3f22 <fputc>
    3cfc:	e1 10       	cpse	r14, r1
    3cfe:	ea 94       	dec	r14
    3d00:	01 50       	subi	r16, 0x01	; 1
    3d02:	10 40       	sbci	r17, 0x00	; 0
    3d04:	01 15       	cp	r16, r1
    3d06:	11 05       	cpc	r17, r1
    3d08:	79 f7       	brne	.-34     	; 0x3ce8 <vfprintf+0x1ac>
    3d0a:	ea c0       	rjmp	.+468    	; 0x3ee0 <vfprintf+0x3a4>
    3d0c:	94 36       	cpi	r25, 0x64	; 100
    3d0e:	11 f0       	breq	.+4      	; 0x3d14 <vfprintf+0x1d8>
    3d10:	99 36       	cpi	r25, 0x69	; 105
    3d12:	69 f5       	brne	.+90     	; 0x3d6e <vfprintf+0x232>
    3d14:	f7 fe       	sbrs	r15, 7
    3d16:	08 c0       	rjmp	.+16     	; 0x3d28 <vfprintf+0x1ec>
    3d18:	f5 01       	movw	r30, r10
    3d1a:	20 81       	ld	r18, Z
    3d1c:	31 81       	ldd	r19, Z+1	; 0x01
    3d1e:	42 81       	ldd	r20, Z+2	; 0x02
    3d20:	53 81       	ldd	r21, Z+3	; 0x03
    3d22:	84 e0       	ldi	r24, 0x04	; 4
    3d24:	90 e0       	ldi	r25, 0x00	; 0
    3d26:	0a c0       	rjmp	.+20     	; 0x3d3c <vfprintf+0x200>
    3d28:	f5 01       	movw	r30, r10
    3d2a:	80 81       	ld	r24, Z
    3d2c:	91 81       	ldd	r25, Z+1	; 0x01
    3d2e:	9c 01       	movw	r18, r24
    3d30:	44 27       	eor	r20, r20
    3d32:	37 fd       	sbrc	r19, 7
    3d34:	40 95       	com	r20
    3d36:	54 2f       	mov	r21, r20
    3d38:	82 e0       	ldi	r24, 0x02	; 2
    3d3a:	90 e0       	ldi	r25, 0x00	; 0
    3d3c:	a8 0e       	add	r10, r24
    3d3e:	b9 1e       	adc	r11, r25
    3d40:	9f e6       	ldi	r25, 0x6F	; 111
    3d42:	f9 22       	and	r15, r25
    3d44:	57 ff       	sbrs	r21, 7
    3d46:	09 c0       	rjmp	.+18     	; 0x3d5a <vfprintf+0x21e>
    3d48:	50 95       	com	r21
    3d4a:	40 95       	com	r20
    3d4c:	30 95       	com	r19
    3d4e:	21 95       	neg	r18
    3d50:	3f 4f       	sbci	r19, 0xFF	; 255
    3d52:	4f 4f       	sbci	r20, 0xFF	; 255
    3d54:	5f 4f       	sbci	r21, 0xFF	; 255
    3d56:	e0 e8       	ldi	r30, 0x80	; 128
    3d58:	fe 2a       	or	r15, r30
    3d5a:	ca 01       	movw	r24, r20
    3d5c:	b9 01       	movw	r22, r18
    3d5e:	a1 01       	movw	r20, r2
    3d60:	2a e0       	ldi	r18, 0x0A	; 10
    3d62:	30 e0       	ldi	r19, 0x00	; 0
    3d64:	0e 94 bd 1f 	call	0x3f7a	; 0x3f7a <__ultoa_invert>
    3d68:	d8 2e       	mov	r13, r24
    3d6a:	d2 18       	sub	r13, r2
    3d6c:	40 c0       	rjmp	.+128    	; 0x3dee <vfprintf+0x2b2>
    3d6e:	95 37       	cpi	r25, 0x75	; 117
    3d70:	29 f4       	brne	.+10     	; 0x3d7c <vfprintf+0x240>
    3d72:	1f 2d       	mov	r17, r15
    3d74:	1f 7e       	andi	r17, 0xEF	; 239
    3d76:	2a e0       	ldi	r18, 0x0A	; 10
    3d78:	30 e0       	ldi	r19, 0x00	; 0
    3d7a:	1d c0       	rjmp	.+58     	; 0x3db6 <vfprintf+0x27a>
    3d7c:	1f 2d       	mov	r17, r15
    3d7e:	19 7f       	andi	r17, 0xF9	; 249
    3d80:	9f 36       	cpi	r25, 0x6F	; 111
    3d82:	61 f0       	breq	.+24     	; 0x3d9c <vfprintf+0x260>
    3d84:	90 37       	cpi	r25, 0x70	; 112
    3d86:	20 f4       	brcc	.+8      	; 0x3d90 <vfprintf+0x254>
    3d88:	98 35       	cpi	r25, 0x58	; 88
    3d8a:	09 f0       	breq	.+2      	; 0x3d8e <vfprintf+0x252>
    3d8c:	ac c0       	rjmp	.+344    	; 0x3ee6 <vfprintf+0x3aa>
    3d8e:	0f c0       	rjmp	.+30     	; 0x3dae <vfprintf+0x272>
    3d90:	90 37       	cpi	r25, 0x70	; 112
    3d92:	39 f0       	breq	.+14     	; 0x3da2 <vfprintf+0x266>
    3d94:	98 37       	cpi	r25, 0x78	; 120
    3d96:	09 f0       	breq	.+2      	; 0x3d9a <vfprintf+0x25e>
    3d98:	a6 c0       	rjmp	.+332    	; 0x3ee6 <vfprintf+0x3aa>
    3d9a:	04 c0       	rjmp	.+8      	; 0x3da4 <vfprintf+0x268>
    3d9c:	28 e0       	ldi	r18, 0x08	; 8
    3d9e:	30 e0       	ldi	r19, 0x00	; 0
    3da0:	0a c0       	rjmp	.+20     	; 0x3db6 <vfprintf+0x27a>
    3da2:	10 61       	ori	r17, 0x10	; 16
    3da4:	14 fd       	sbrc	r17, 4
    3da6:	14 60       	ori	r17, 0x04	; 4
    3da8:	20 e1       	ldi	r18, 0x10	; 16
    3daa:	30 e0       	ldi	r19, 0x00	; 0
    3dac:	04 c0       	rjmp	.+8      	; 0x3db6 <vfprintf+0x27a>
    3dae:	14 fd       	sbrc	r17, 4
    3db0:	16 60       	ori	r17, 0x06	; 6
    3db2:	20 e1       	ldi	r18, 0x10	; 16
    3db4:	32 e0       	ldi	r19, 0x02	; 2
    3db6:	17 ff       	sbrs	r17, 7
    3db8:	08 c0       	rjmp	.+16     	; 0x3dca <vfprintf+0x28e>
    3dba:	f5 01       	movw	r30, r10
    3dbc:	60 81       	ld	r22, Z
    3dbe:	71 81       	ldd	r23, Z+1	; 0x01
    3dc0:	82 81       	ldd	r24, Z+2	; 0x02
    3dc2:	93 81       	ldd	r25, Z+3	; 0x03
    3dc4:	44 e0       	ldi	r20, 0x04	; 4
    3dc6:	50 e0       	ldi	r21, 0x00	; 0
    3dc8:	08 c0       	rjmp	.+16     	; 0x3dda <vfprintf+0x29e>
    3dca:	f5 01       	movw	r30, r10
    3dcc:	80 81       	ld	r24, Z
    3dce:	91 81       	ldd	r25, Z+1	; 0x01
    3dd0:	bc 01       	movw	r22, r24
    3dd2:	80 e0       	ldi	r24, 0x00	; 0
    3dd4:	90 e0       	ldi	r25, 0x00	; 0
    3dd6:	42 e0       	ldi	r20, 0x02	; 2
    3dd8:	50 e0       	ldi	r21, 0x00	; 0
    3dda:	a4 0e       	add	r10, r20
    3ddc:	b5 1e       	adc	r11, r21
    3dde:	a1 01       	movw	r20, r2
    3de0:	0e 94 bd 1f 	call	0x3f7a	; 0x3f7a <__ultoa_invert>
    3de4:	d8 2e       	mov	r13, r24
    3de6:	d2 18       	sub	r13, r2
    3de8:	8f e7       	ldi	r24, 0x7F	; 127
    3dea:	f8 2e       	mov	r15, r24
    3dec:	f1 22       	and	r15, r17
    3dee:	f6 fe       	sbrs	r15, 6
    3df0:	0b c0       	rjmp	.+22     	; 0x3e08 <vfprintf+0x2cc>
    3df2:	5e ef       	ldi	r21, 0xFE	; 254
    3df4:	f5 22       	and	r15, r21
    3df6:	d9 14       	cp	r13, r9
    3df8:	38 f4       	brcc	.+14     	; 0x3e08 <vfprintf+0x2cc>
    3dfa:	f4 fe       	sbrs	r15, 4
    3dfc:	07 c0       	rjmp	.+14     	; 0x3e0c <vfprintf+0x2d0>
    3dfe:	f2 fc       	sbrc	r15, 2
    3e00:	05 c0       	rjmp	.+10     	; 0x3e0c <vfprintf+0x2d0>
    3e02:	8f ee       	ldi	r24, 0xEF	; 239
    3e04:	f8 22       	and	r15, r24
    3e06:	02 c0       	rjmp	.+4      	; 0x3e0c <vfprintf+0x2d0>
    3e08:	1d 2d       	mov	r17, r13
    3e0a:	01 c0       	rjmp	.+2      	; 0x3e0e <vfprintf+0x2d2>
    3e0c:	19 2d       	mov	r17, r9
    3e0e:	f4 fe       	sbrs	r15, 4
    3e10:	0d c0       	rjmp	.+26     	; 0x3e2c <vfprintf+0x2f0>
    3e12:	fe 01       	movw	r30, r28
    3e14:	ed 0d       	add	r30, r13
    3e16:	f1 1d       	adc	r31, r1
    3e18:	80 81       	ld	r24, Z
    3e1a:	80 33       	cpi	r24, 0x30	; 48
    3e1c:	19 f4       	brne	.+6      	; 0x3e24 <vfprintf+0x2e8>
    3e1e:	99 ee       	ldi	r25, 0xE9	; 233
    3e20:	f9 22       	and	r15, r25
    3e22:	08 c0       	rjmp	.+16     	; 0x3e34 <vfprintf+0x2f8>
    3e24:	1f 5f       	subi	r17, 0xFF	; 255
    3e26:	f2 fe       	sbrs	r15, 2
    3e28:	05 c0       	rjmp	.+10     	; 0x3e34 <vfprintf+0x2f8>
    3e2a:	03 c0       	rjmp	.+6      	; 0x3e32 <vfprintf+0x2f6>
    3e2c:	8f 2d       	mov	r24, r15
    3e2e:	86 78       	andi	r24, 0x86	; 134
    3e30:	09 f0       	breq	.+2      	; 0x3e34 <vfprintf+0x2f8>
    3e32:	1f 5f       	subi	r17, 0xFF	; 255
    3e34:	0f 2d       	mov	r16, r15
    3e36:	f3 fc       	sbrc	r15, 3
    3e38:	14 c0       	rjmp	.+40     	; 0x3e62 <vfprintf+0x326>
    3e3a:	f0 fe       	sbrs	r15, 0
    3e3c:	0f c0       	rjmp	.+30     	; 0x3e5c <vfprintf+0x320>
    3e3e:	1e 15       	cp	r17, r14
    3e40:	10 f0       	brcs	.+4      	; 0x3e46 <vfprintf+0x30a>
    3e42:	9d 2c       	mov	r9, r13
    3e44:	0b c0       	rjmp	.+22     	; 0x3e5c <vfprintf+0x320>
    3e46:	9d 2c       	mov	r9, r13
    3e48:	9e 0c       	add	r9, r14
    3e4a:	91 1a       	sub	r9, r17
    3e4c:	1e 2d       	mov	r17, r14
    3e4e:	06 c0       	rjmp	.+12     	; 0x3e5c <vfprintf+0x320>
    3e50:	80 e2       	ldi	r24, 0x20	; 32
    3e52:	90 e0       	ldi	r25, 0x00	; 0
    3e54:	b3 01       	movw	r22, r6
    3e56:	0e 94 91 1f 	call	0x3f22	; 0x3f22 <fputc>
    3e5a:	1f 5f       	subi	r17, 0xFF	; 255
    3e5c:	1e 15       	cp	r17, r14
    3e5e:	c0 f3       	brcs	.-16     	; 0x3e50 <vfprintf+0x314>
    3e60:	04 c0       	rjmp	.+8      	; 0x3e6a <vfprintf+0x32e>
    3e62:	1e 15       	cp	r17, r14
    3e64:	10 f4       	brcc	.+4      	; 0x3e6a <vfprintf+0x32e>
    3e66:	e1 1a       	sub	r14, r17
    3e68:	01 c0       	rjmp	.+2      	; 0x3e6c <vfprintf+0x330>
    3e6a:	ee 24       	eor	r14, r14
    3e6c:	04 ff       	sbrs	r16, 4
    3e6e:	0f c0       	rjmp	.+30     	; 0x3e8e <vfprintf+0x352>
    3e70:	80 e3       	ldi	r24, 0x30	; 48
    3e72:	90 e0       	ldi	r25, 0x00	; 0
    3e74:	b3 01       	movw	r22, r6
    3e76:	0e 94 91 1f 	call	0x3f22	; 0x3f22 <fputc>
    3e7a:	02 ff       	sbrs	r16, 2
    3e7c:	1d c0       	rjmp	.+58     	; 0x3eb8 <vfprintf+0x37c>
    3e7e:	01 fd       	sbrc	r16, 1
    3e80:	03 c0       	rjmp	.+6      	; 0x3e88 <vfprintf+0x34c>
    3e82:	88 e7       	ldi	r24, 0x78	; 120
    3e84:	90 e0       	ldi	r25, 0x00	; 0
    3e86:	0e c0       	rjmp	.+28     	; 0x3ea4 <vfprintf+0x368>
    3e88:	88 e5       	ldi	r24, 0x58	; 88
    3e8a:	90 e0       	ldi	r25, 0x00	; 0
    3e8c:	0b c0       	rjmp	.+22     	; 0x3ea4 <vfprintf+0x368>
    3e8e:	80 2f       	mov	r24, r16
    3e90:	86 78       	andi	r24, 0x86	; 134
    3e92:	91 f0       	breq	.+36     	; 0x3eb8 <vfprintf+0x37c>
    3e94:	01 ff       	sbrs	r16, 1
    3e96:	02 c0       	rjmp	.+4      	; 0x3e9c <vfprintf+0x360>
    3e98:	8b e2       	ldi	r24, 0x2B	; 43
    3e9a:	01 c0       	rjmp	.+2      	; 0x3e9e <vfprintf+0x362>
    3e9c:	80 e2       	ldi	r24, 0x20	; 32
    3e9e:	f7 fc       	sbrc	r15, 7
    3ea0:	8d e2       	ldi	r24, 0x2D	; 45
    3ea2:	90 e0       	ldi	r25, 0x00	; 0
    3ea4:	b3 01       	movw	r22, r6
    3ea6:	0e 94 91 1f 	call	0x3f22	; 0x3f22 <fputc>
    3eaa:	06 c0       	rjmp	.+12     	; 0x3eb8 <vfprintf+0x37c>
    3eac:	80 e3       	ldi	r24, 0x30	; 48
    3eae:	90 e0       	ldi	r25, 0x00	; 0
    3eb0:	b3 01       	movw	r22, r6
    3eb2:	0e 94 91 1f 	call	0x3f22	; 0x3f22 <fputc>
    3eb6:	9a 94       	dec	r9
    3eb8:	d9 14       	cp	r13, r9
    3eba:	c0 f3       	brcs	.-16     	; 0x3eac <vfprintf+0x370>
    3ebc:	da 94       	dec	r13
    3ebe:	f1 01       	movw	r30, r2
    3ec0:	ed 0d       	add	r30, r13
    3ec2:	f1 1d       	adc	r31, r1
    3ec4:	80 81       	ld	r24, Z
    3ec6:	90 e0       	ldi	r25, 0x00	; 0
    3ec8:	b3 01       	movw	r22, r6
    3eca:	0e 94 91 1f 	call	0x3f22	; 0x3f22 <fputc>
    3ece:	dd 20       	and	r13, r13
    3ed0:	a9 f7       	brne	.-22     	; 0x3ebc <vfprintf+0x380>
    3ed2:	06 c0       	rjmp	.+12     	; 0x3ee0 <vfprintf+0x3a4>
    3ed4:	80 e2       	ldi	r24, 0x20	; 32
    3ed6:	90 e0       	ldi	r25, 0x00	; 0
    3ed8:	b3 01       	movw	r22, r6
    3eda:	0e 94 91 1f 	call	0x3f22	; 0x3f22 <fputc>
    3ede:	ea 94       	dec	r14
    3ee0:	ee 20       	and	r14, r14
    3ee2:	c1 f7       	brne	.-16     	; 0x3ed4 <vfprintf+0x398>
    3ee4:	43 ce       	rjmp	.-890    	; 0x3b6c <vfprintf+0x30>
    3ee6:	f3 01       	movw	r30, r6
    3ee8:	66 81       	ldd	r22, Z+6	; 0x06
    3eea:	77 81       	ldd	r23, Z+7	; 0x07
    3eec:	cb 01       	movw	r24, r22
    3eee:	2b 96       	adiw	r28, 0x0b	; 11
    3ef0:	e2 e1       	ldi	r30, 0x12	; 18
    3ef2:	0c 94 3b 1d 	jmp	0x3a76	; 0x3a76 <__epilogue_restores__>

00003ef6 <strnlen_P>:
    3ef6:	fc 01       	movw	r30, r24
    3ef8:	05 90       	lpm	r0, Z+
    3efa:	61 50       	subi	r22, 0x01	; 1
    3efc:	70 40       	sbci	r23, 0x00	; 0
    3efe:	01 10       	cpse	r0, r1
    3f00:	d8 f7       	brcc	.-10     	; 0x3ef8 <strnlen_P+0x2>
    3f02:	80 95       	com	r24
    3f04:	90 95       	com	r25
    3f06:	8e 0f       	add	r24, r30
    3f08:	9f 1f       	adc	r25, r31
    3f0a:	08 95       	ret

00003f0c <strnlen>:
    3f0c:	fc 01       	movw	r30, r24
    3f0e:	61 50       	subi	r22, 0x01	; 1
    3f10:	70 40       	sbci	r23, 0x00	; 0
    3f12:	01 90       	ld	r0, Z+
    3f14:	01 10       	cpse	r0, r1
    3f16:	d8 f7       	brcc	.-10     	; 0x3f0e <strnlen+0x2>
    3f18:	80 95       	com	r24
    3f1a:	90 95       	com	r25
    3f1c:	8e 0f       	add	r24, r30
    3f1e:	9f 1f       	adc	r25, r31
    3f20:	08 95       	ret

00003f22 <fputc>:
    3f22:	0f 93       	push	r16
    3f24:	1f 93       	push	r17
    3f26:	cf 93       	push	r28
    3f28:	df 93       	push	r29
    3f2a:	8c 01       	movw	r16, r24
    3f2c:	eb 01       	movw	r28, r22
    3f2e:	8b 81       	ldd	r24, Y+3	; 0x03
    3f30:	81 ff       	sbrs	r24, 1
    3f32:	1b c0       	rjmp	.+54     	; 0x3f6a <fputc+0x48>
    3f34:	82 ff       	sbrs	r24, 2
    3f36:	0d c0       	rjmp	.+26     	; 0x3f52 <fputc+0x30>
    3f38:	2e 81       	ldd	r18, Y+6	; 0x06
    3f3a:	3f 81       	ldd	r19, Y+7	; 0x07
    3f3c:	8c 81       	ldd	r24, Y+4	; 0x04
    3f3e:	9d 81       	ldd	r25, Y+5	; 0x05
    3f40:	28 17       	cp	r18, r24
    3f42:	39 07       	cpc	r19, r25
    3f44:	64 f4       	brge	.+24     	; 0x3f5e <fputc+0x3c>
    3f46:	e8 81       	ld	r30, Y
    3f48:	f9 81       	ldd	r31, Y+1	; 0x01
    3f4a:	01 93       	st	Z+, r16
    3f4c:	f9 83       	std	Y+1, r31	; 0x01
    3f4e:	e8 83       	st	Y, r30
    3f50:	06 c0       	rjmp	.+12     	; 0x3f5e <fputc+0x3c>
    3f52:	e8 85       	ldd	r30, Y+8	; 0x08
    3f54:	f9 85       	ldd	r31, Y+9	; 0x09
    3f56:	80 2f       	mov	r24, r16
    3f58:	09 95       	icall
    3f5a:	89 2b       	or	r24, r25
    3f5c:	31 f4       	brne	.+12     	; 0x3f6a <fputc+0x48>
    3f5e:	8e 81       	ldd	r24, Y+6	; 0x06
    3f60:	9f 81       	ldd	r25, Y+7	; 0x07
    3f62:	01 96       	adiw	r24, 0x01	; 1
    3f64:	9f 83       	std	Y+7, r25	; 0x07
    3f66:	8e 83       	std	Y+6, r24	; 0x06
    3f68:	02 c0       	rjmp	.+4      	; 0x3f6e <fputc+0x4c>
    3f6a:	0f ef       	ldi	r16, 0xFF	; 255
    3f6c:	1f ef       	ldi	r17, 0xFF	; 255
    3f6e:	c8 01       	movw	r24, r16
    3f70:	df 91       	pop	r29
    3f72:	cf 91       	pop	r28
    3f74:	1f 91       	pop	r17
    3f76:	0f 91       	pop	r16
    3f78:	08 95       	ret

00003f7a <__ultoa_invert>:
    3f7a:	fa 01       	movw	r30, r20
    3f7c:	aa 27       	eor	r26, r26
    3f7e:	28 30       	cpi	r18, 0x08	; 8
    3f80:	51 f1       	breq	.+84     	; 0x3fd6 <__ultoa_invert+0x5c>
    3f82:	20 31       	cpi	r18, 0x10	; 16
    3f84:	81 f1       	breq	.+96     	; 0x3fe6 <__ultoa_invert+0x6c>
    3f86:	e8 94       	clt
    3f88:	6f 93       	push	r22
    3f8a:	6e 7f       	andi	r22, 0xFE	; 254
    3f8c:	6e 5f       	subi	r22, 0xFE	; 254
    3f8e:	7f 4f       	sbci	r23, 0xFF	; 255
    3f90:	8f 4f       	sbci	r24, 0xFF	; 255
    3f92:	9f 4f       	sbci	r25, 0xFF	; 255
    3f94:	af 4f       	sbci	r26, 0xFF	; 255
    3f96:	b1 e0       	ldi	r27, 0x01	; 1
    3f98:	3e d0       	rcall	.+124    	; 0x4016 <__ultoa_invert+0x9c>
    3f9a:	b4 e0       	ldi	r27, 0x04	; 4
    3f9c:	3c d0       	rcall	.+120    	; 0x4016 <__ultoa_invert+0x9c>
    3f9e:	67 0f       	add	r22, r23
    3fa0:	78 1f       	adc	r23, r24
    3fa2:	89 1f       	adc	r24, r25
    3fa4:	9a 1f       	adc	r25, r26
    3fa6:	a1 1d       	adc	r26, r1
    3fa8:	68 0f       	add	r22, r24
    3faa:	79 1f       	adc	r23, r25
    3fac:	8a 1f       	adc	r24, r26
    3fae:	91 1d       	adc	r25, r1
    3fb0:	a1 1d       	adc	r26, r1
    3fb2:	6a 0f       	add	r22, r26
    3fb4:	71 1d       	adc	r23, r1
    3fb6:	81 1d       	adc	r24, r1
    3fb8:	91 1d       	adc	r25, r1
    3fba:	a1 1d       	adc	r26, r1
    3fbc:	20 d0       	rcall	.+64     	; 0x3ffe <__ultoa_invert+0x84>
    3fbe:	09 f4       	brne	.+2      	; 0x3fc2 <__ultoa_invert+0x48>
    3fc0:	68 94       	set
    3fc2:	3f 91       	pop	r19
    3fc4:	2a e0       	ldi	r18, 0x0A	; 10
    3fc6:	26 9f       	mul	r18, r22
    3fc8:	11 24       	eor	r1, r1
    3fca:	30 19       	sub	r19, r0
    3fcc:	30 5d       	subi	r19, 0xD0	; 208
    3fce:	31 93       	st	Z+, r19
    3fd0:	de f6       	brtc	.-74     	; 0x3f88 <__ultoa_invert+0xe>
    3fd2:	cf 01       	movw	r24, r30
    3fd4:	08 95       	ret
    3fd6:	46 2f       	mov	r20, r22
    3fd8:	47 70       	andi	r20, 0x07	; 7
    3fda:	40 5d       	subi	r20, 0xD0	; 208
    3fdc:	41 93       	st	Z+, r20
    3fde:	b3 e0       	ldi	r27, 0x03	; 3
    3fe0:	0f d0       	rcall	.+30     	; 0x4000 <__ultoa_invert+0x86>
    3fe2:	c9 f7       	brne	.-14     	; 0x3fd6 <__ultoa_invert+0x5c>
    3fe4:	f6 cf       	rjmp	.-20     	; 0x3fd2 <__ultoa_invert+0x58>
    3fe6:	46 2f       	mov	r20, r22
    3fe8:	4f 70       	andi	r20, 0x0F	; 15
    3fea:	40 5d       	subi	r20, 0xD0	; 208
    3fec:	4a 33       	cpi	r20, 0x3A	; 58
    3fee:	18 f0       	brcs	.+6      	; 0x3ff6 <__ultoa_invert+0x7c>
    3ff0:	49 5d       	subi	r20, 0xD9	; 217
    3ff2:	31 fd       	sbrc	r19, 1
    3ff4:	40 52       	subi	r20, 0x20	; 32
    3ff6:	41 93       	st	Z+, r20
    3ff8:	02 d0       	rcall	.+4      	; 0x3ffe <__ultoa_invert+0x84>
    3ffa:	a9 f7       	brne	.-22     	; 0x3fe6 <__ultoa_invert+0x6c>
    3ffc:	ea cf       	rjmp	.-44     	; 0x3fd2 <__ultoa_invert+0x58>
    3ffe:	b4 e0       	ldi	r27, 0x04	; 4
    4000:	a6 95       	lsr	r26
    4002:	97 95       	ror	r25
    4004:	87 95       	ror	r24
    4006:	77 95       	ror	r23
    4008:	67 95       	ror	r22
    400a:	ba 95       	dec	r27
    400c:	c9 f7       	brne	.-14     	; 0x4000 <__ultoa_invert+0x86>
    400e:	00 97       	sbiw	r24, 0x00	; 0
    4010:	61 05       	cpc	r22, r1
    4012:	71 05       	cpc	r23, r1
    4014:	08 95       	ret
    4016:	9b 01       	movw	r18, r22
    4018:	ac 01       	movw	r20, r24
    401a:	0a 2e       	mov	r0, r26
    401c:	06 94       	lsr	r0
    401e:	57 95       	ror	r21
    4020:	47 95       	ror	r20
    4022:	37 95       	ror	r19
    4024:	27 95       	ror	r18
    4026:	ba 95       	dec	r27
    4028:	c9 f7       	brne	.-14     	; 0x401c <__ultoa_invert+0xa2>
    402a:	62 0f       	add	r22, r18
    402c:	73 1f       	adc	r23, r19
    402e:	84 1f       	adc	r24, r20
    4030:	95 1f       	adc	r25, r21
    4032:	a0 1d       	adc	r26, r0
    4034:	08 95       	ret

00004036 <_exit>:
    4036:	f8 94       	cli

00004038 <__stop_program>:
    4038:	ff cf       	rjmp	.-2      	; 0x4038 <__stop_program>
